Component: ARM Compiler 5.06 update 6 (build 750) Tool: armlink [4d35ed]

==============================================================================

Section Cross References

    main.o(i.main) refers to system.o(i.System_Init) for System_Init
    main.o(i.main) refers to system.o(i.Task_Schedule) for Task_Schedule
    stm32f0xx_it.o(i.EXTI0_1_IRQHandler) refers to stm32f0xx_exti.o(i.EXTI_GetITStatus) for EXTI_GetITStatus
    stm32f0xx_it.o(i.EXTI0_1_IRQHandler) refers to si24r1.o(i.SI24R1_read_reg) for SI24R1_read_reg
    stm32f0xx_it.o(i.EXTI0_1_IRQHandler) refers to si24r1.o(i.SI24R1set_Mode) for SI24R1set_Mode
    stm32f0xx_it.o(i.EXTI0_1_IRQHandler) refers to si24r1.o(i.SI24R1_write_reg) for SI24R1_write_reg
    stm32f0xx_it.o(i.EXTI0_1_IRQHandler) refers to si24r1.o(i.SI24R1_RxPacket) for SI24R1_RxPacket
    stm32f0xx_it.o(i.EXTI0_1_IRQHandler) refers to remotedata.o(i.Remote_Data_ReceiveAnalysis) for Remote_Data_ReceiveAnalysis
    stm32f0xx_it.o(i.EXTI0_1_IRQHandler) refers to stm32f0xx_exti.o(i.EXTI_ClearITPendingBit) for EXTI_ClearITPendingBit
    stm32f0xx_it.o(i.EXTI0_1_IRQHandler) refers to si24r1.o(.bss) for SI24R1_RX_DATA
    stm32f0xx_it.o(i.NMI_Handler) refers to stm32f0xx_rcc.o(i.RCC_GetITStatus) for RCC_GetITStatus
    stm32f0xx_it.o(i.NMI_Handler) refers to stm32f0xx_rcc.o(i.RCC_HSEConfig) for RCC_HSEConfig
    stm32f0xx_it.o(i.NMI_Handler) refers to stm32f0xx_rcc.o(i.RCC_ITConfig) for RCC_ITConfig
    stm32f0xx_it.o(i.NMI_Handler) refers to stm32f0xx_rcc.o(i.RCC_ClearITPendingBit) for RCC_ClearITPendingBit
    stm32f0xx_it.o(i.SysTick_Handler) refers to delay.o(.data) for sysTickUptime
    stm32f0xx_it.o(i.TIM2_IRQHandler) refers to stm32f0xx_tim.o(i.TIM_GetITStatus) for TIM_GetITStatus
    stm32f0xx_it.o(i.TIM2_IRQHandler) refers to stm32f0xx_tim.o(i.TIM_ClearITPendingBit) for TIM_ClearITPendingBit
    stm32f0xx_it.o(i.TIM2_IRQHandler) refers to stm32f0xx_it.o(.data) for .data
    stm32f0xx_it.o(i.USART1_IRQHandler) refers to stm32f0xx_usart.o(i.USART_GetFlagStatus) for USART_GetFlagStatus
    stm32f0xx_it.o(i.USART1_IRQHandler) refers to ano_dt.o(i.ANO_DT_Data_Receive_Prepare) for ANO_DT_Data_Receive_Prepare
    stm32f0xx_it.o(i.USART1_IRQHandler) refers to stm32f0xx_usart.o(i.USART_ClearFlag) for USART_ClearFlag
    stm32f0xx_it.o(i.USART1_IRQHandler) refers to stm32f0xx_usart.o(i.USART_GetITStatus) for USART_GetITStatus
    stm32f0xx_it.o(i.USART1_IRQHandler) refers to stm32f0xx_usart.o(i.USART_ClearITPendingBit) for USART_ClearITPendingBit
    delay.o(i.Delay_Init) refers to stm32f0xx_misc.o(i.SysTick_CLKSourceConfig) for SysTick_CLKSourceConfig
    delay.o(i.Delay_Init) refers to aeabi_sdiv.o(.text) for __aeabi_uidivmod
    delay.o(i.Delay_Init) refers to system_stm32f0xx.o(.data) for SystemCoreClock
    delay.o(i.Delay_Init) refers to delay.o(.data) for .data
    delay.o(i.Delay_ms) refers to delay.o(.data) for .data
    delay.o(i.Delay_us) refers to delay.o(.data) for .data
    led.o(i.LED_Init) refers to stm32f0xx_rcc.o(i.RCC_AHBPeriphClockCmd) for RCC_AHBPeriphClockCmd
    led.o(i.LED_Init) refers to stm32f0xx_gpio.o(i.GPIO_Init) for GPIO_Init
    led.o(i.LED_Init) refers to stm32f0xx_gpio.o(i.GPIO_SetBits) for GPIO_SetBits
    led.o(i.LED_Run) refers to stm32f0xx_gpio.o(i.GPIO_SetBits) for GPIO_SetBits
    led.o(i.LED_Run) refers to stm32f0xx_gpio.o(i.GPIO_ResetBits) for GPIO_ResetBits
    led.o(i.LED_Run) refers to led.o(.data) for .data
    usart.o(i.USART_init) refers to stm32f0xx_rcc.o(i.RCC_APB2PeriphClockCmd) for RCC_APB2PeriphClockCmd
    usart.o(i.USART_init) refers to stm32f0xx_rcc.o(i.RCC_AHBPeriphClockCmd) for RCC_AHBPeriphClockCmd
    usart.o(i.USART_init) refers to stm32f0xx_gpio.o(i.GPIO_PinAFConfig) for GPIO_PinAFConfig
    usart.o(i.USART_init) refers to stm32f0xx_gpio.o(i.GPIO_Init) for GPIO_Init
    usart.o(i.USART_init) refers to stm32f0xx_usart.o(i.USART_Init) for USART_Init
    usart.o(i.USART_init) refers to stm32f0xx_usart.o(i.USART_ITConfig) for USART_ITConfig
    usart.o(i.USART_init) refers to stm32f0xx_usart.o(i.USART_Cmd) for USART_Cmd
    usart.o(i.fputc) refers to stm32f0xx_usart.o(i.USART_SendData) for USART_SendData
    usart.o(i.fputc) refers to stm32f0xx_usart.o(i.USART_GetFlagStatus) for USART_GetFlagStatus
    usart.o(i.usart_send) refers to stm32f0xx_usart.o(i.USART_SendData) for USART_SendData
    usart.o(i.usart_send) refers to stm32f0xx_usart.o(i.USART_GetFlagStatus) for USART_GetFlagStatus
    exit.o(i.Exit_Init) refers to stm32f0xx_rcc.o(i.RCC_AHBPeriphClockCmd) for RCC_AHBPeriphClockCmd
    exit.o(i.Exit_Init) refers to stm32f0xx_rcc.o(i.RCC_APB2PeriphClockCmd) for RCC_APB2PeriphClockCmd
    exit.o(i.Exit_Init) refers to stm32f0xx_syscfg.o(i.SYSCFG_EXTILineConfig) for SYSCFG_EXTILineConfig
    exit.o(i.Exit_Init) refers to stm32f0xx_gpio.o(i.GPIO_Init) for GPIO_Init
    exit.o(i.Exit_Init) refers to stm32f0xx_exti.o(i.EXTI_Init) for EXTI_Init
    flash.o(i.STMFLASH_Write) refers to stm32f0xx_flash.o(i.FLASH_Unlock) for FLASH_Unlock
    flash.o(i.STMFLASH_Write) refers to stm32f0xx_flash.o(i.FLASH_ErasePage) for FLASH_ErasePage
    flash.o(i.STMFLASH_Write) refers to stm32f0xx_flash.o(i.FLASH_ProgramWord) for FLASH_ProgramWord
    flash.o(i.STMFLASH_Write) refers to stm32f0xx_flash.o(i.FLASH_Lock) for FLASH_Lock
    iic.o(i.IIC_ADD_read) refers to iic.o(i.IIC_Start) for IIC_Start
    iic.o(i.IIC_ADD_read) refers to iic.o(i.IIC_SendByte) for IIC_SendByte
    iic.o(i.IIC_ADD_read) refers to iic.o(i.IIC_WaitAck) for IIC_WaitAck
    iic.o(i.IIC_ADD_read) refers to iic.o(i.IIC_ReadByte) for IIC_ReadByte
    iic.o(i.IIC_ADD_read) refers to iic.o(i.IIC_Stop) for IIC_Stop
    iic.o(i.IIC_ADD_write) refers to iic.o(i.IIC_Start) for IIC_Start
    iic.o(i.IIC_ADD_write) refers to iic.o(i.IIC_SendByte) for IIC_SendByte
    iic.o(i.IIC_ADD_write) refers to iic.o(i.IIC_WaitAck) for IIC_WaitAck
    iic.o(i.IIC_ADD_write) refers to iic.o(i.IIC_Stop) for IIC_Stop
    iic.o(i.IIC_ADD_write) refers to delay.o(i.Delay_us) for Delay_us
    iic.o(i.IIC_Ack) refers to stm32f0xx_gpio.o(i.GPIO_ResetBits) for GPIO_ResetBits
    iic.o(i.IIC_Ack) refers to delay.o(i.Delay_us) for Delay_us
    iic.o(i.IIC_Ack) refers to stm32f0xx_gpio.o(i.GPIO_SetBits) for GPIO_SetBits
    iic.o(i.IIC_GPIO_Init) refers to stm32f0xx_rcc.o(i.RCC_AHBPeriphClockCmd) for RCC_AHBPeriphClockCmd
    iic.o(i.IIC_GPIO_Init) refers to stm32f0xx_gpio.o(i.GPIO_Init) for GPIO_Init
    iic.o(i.IIC_GPIO_Init) refers to stm32f0xx_gpio.o(i.GPIO_SetBits) for GPIO_SetBits
    iic.o(i.IIC_NAck) refers to stm32f0xx_gpio.o(i.GPIO_ResetBits) for GPIO_ResetBits
    iic.o(i.IIC_NAck) refers to delay.o(i.Delay_us) for Delay_us
    iic.o(i.IIC_NAck) refers to stm32f0xx_gpio.o(i.GPIO_SetBits) for GPIO_SetBits
    iic.o(i.IIC_ReadByte) refers to stm32f0xx_gpio.o(i.GPIO_SetBits) for GPIO_SetBits
    iic.o(i.IIC_ReadByte) refers to stm32f0xx_gpio.o(i.GPIO_ResetBits) for GPIO_ResetBits
    iic.o(i.IIC_ReadByte) refers to delay.o(i.Delay_us) for Delay_us
    iic.o(i.IIC_ReadByte) refers to stm32f0xx_gpio.o(i.GPIO_ReadInputDataBit) for GPIO_ReadInputDataBit
    iic.o(i.IIC_ReadByte) refers to iic.o(i.IIC_Ack) for IIC_Ack
    iic.o(i.IIC_ReadByte) refers to iic.o(i.IIC_NAck) for IIC_NAck
    iic.o(i.IIC_ReadByteFromSlave) refers to iic.o(i.IIC_Start) for IIC_Start
    iic.o(i.IIC_ReadByteFromSlave) refers to iic.o(i.IIC_SendByte) for IIC_SendByte
    iic.o(i.IIC_ReadByteFromSlave) refers to iic.o(i.IIC_WaitAck) for IIC_WaitAck
    iic.o(i.IIC_ReadByteFromSlave) refers to iic.o(i.IIC_Stop) for IIC_Stop
    iic.o(i.IIC_ReadByteFromSlave) refers to iic.o(i.IIC_ReadByte) for IIC_ReadByte
    iic.o(i.IIC_ReadMultByteFromSlave) refers to iic.o(i.IIC_Start) for IIC_Start
    iic.o(i.IIC_ReadMultByteFromSlave) refers to iic.o(i.IIC_SendByte) for IIC_SendByte
    iic.o(i.IIC_ReadMultByteFromSlave) refers to iic.o(i.IIC_WaitAck) for IIC_WaitAck
    iic.o(i.IIC_ReadMultByteFromSlave) refers to iic.o(i.IIC_ReadByte) for IIC_ReadByte
    iic.o(i.IIC_ReadMultByteFromSlave) refers to iic.o(i.IIC_Stop) for IIC_Stop
    iic.o(i.IIC_SendByte) refers to stm32f0xx_gpio.o(i.GPIO_ResetBits) for GPIO_ResetBits
    iic.o(i.IIC_SendByte) refers to stm32f0xx_gpio.o(i.GPIO_SetBits) for GPIO_SetBits
    iic.o(i.IIC_SendByte) refers to delay.o(i.Delay_us) for Delay_us
    iic.o(i.IIC_Start) refers to stm32f0xx_gpio.o(i.GPIO_SetBits) for GPIO_SetBits
    iic.o(i.IIC_Start) refers to delay.o(i.Delay_us) for Delay_us
    iic.o(i.IIC_Start) refers to stm32f0xx_gpio.o(i.GPIO_ReadInputDataBit) for GPIO_ReadInputDataBit
    iic.o(i.IIC_Start) refers to stm32f0xx_gpio.o(i.GPIO_ResetBits) for GPIO_ResetBits
    iic.o(i.IIC_Stop) refers to stm32f0xx_gpio.o(i.GPIO_ResetBits) for GPIO_ResetBits
    iic.o(i.IIC_Stop) refers to delay.o(i.Delay_us) for Delay_us
    iic.o(i.IIC_Stop) refers to stm32f0xx_gpio.o(i.GPIO_SetBits) for GPIO_SetBits
    iic.o(i.IIC_WaitAck) refers to stm32f0xx_gpio.o(i.GPIO_ResetBits) for GPIO_ResetBits
    iic.o(i.IIC_WaitAck) refers to stm32f0xx_gpio.o(i.GPIO_SetBits) for GPIO_SetBits
    iic.o(i.IIC_WaitAck) refers to delay.o(i.Delay_us) for Delay_us
    iic.o(i.IIC_WaitAck) refers to iic.o(i.IIC_Stop) for IIC_Stop
    iic.o(i.IIC_WaitAck) refers to stm32f0xx_gpio.o(i.GPIO_ReadInputDataBit) for GPIO_ReadInputDataBit
    iic.o(i.IIC_WriteByteToSlave) refers to iic.o(i.IIC_Start) for IIC_Start
    iic.o(i.IIC_WriteByteToSlave) refers to iic.o(i.IIC_SendByte) for IIC_SendByte
    iic.o(i.IIC_WriteByteToSlave) refers to iic.o(i.IIC_WaitAck) for IIC_WaitAck
    iic.o(i.IIC_WriteByteToSlave) refers to iic.o(i.IIC_Stop) for IIC_Stop
    iic.o(i.IIC_WriteMultByteToSlave) refers to iic.o(i.IIC_Start) for IIC_Start
    iic.o(i.IIC_WriteMultByteToSlave) refers to iic.o(i.IIC_SendByte) for IIC_SendByte
    iic.o(i.IIC_WriteMultByteToSlave) refers to iic.o(i.IIC_WaitAck) for IIC_WaitAck
    iic.o(i.IIC_WriteMultByteToSlave) refers to iic.o(i.IIC_Stop) for IIC_Stop
    motor.o(i.MOTOR_Init) refers to stm32f0xx_rcc.o(i.RCC_AHBPeriphClockCmd) for RCC_AHBPeriphClockCmd
    motor.o(i.MOTOR_Init) refers to stm32f0xx_gpio.o(i.GPIO_Init) for GPIO_Init
    motor.o(i.MOTOR_Init) refers to stm32f0xx_gpio.o(i.GPIO_PinAFConfig) for GPIO_PinAFConfig
    motor.o(i.MOTOR_Init) refers to stm32f0xx_rcc.o(i.RCC_APB1PeriphClockCmd) for RCC_APB1PeriphClockCmd
    motor.o(i.MOTOR_Init) refers to stm32f0xx_tim.o(i.TIM_TimeBaseInit) for TIM_TimeBaseInit
    motor.o(i.MOTOR_Init) refers to stm32f0xx_tim.o(i.TIM_OC1Init) for TIM_OC1Init
    motor.o(i.MOTOR_Init) refers to stm32f0xx_tim.o(i.TIM_OC2Init) for TIM_OC2Init
    motor.o(i.MOTOR_Init) refers to stm32f0xx_tim.o(i.TIM_OC3Init) for TIM_OC3Init
    motor.o(i.MOTOR_Init) refers to stm32f0xx_tim.o(i.TIM_OC4Init) for TIM_OC4Init
    motor.o(i.MOTOR_Init) refers to stm32f0xx_tim.o(i.TIM_Cmd) for TIM_Cmd
    motor.o(i.MOTOR_Init) refers to stm32f0xx_tim.o(i.TIM_CtrlPWMOutputs) for TIM_CtrlPWMOutputs
    mpu6050.o(i.MPU6050_AccRead) refers to mpu6050.o(i.MPU6050_ReadMultBytes) for MPU6050_ReadMultBytes
    mpu6050.o(i.MPU6050_CalOff) refers to mpu6050.o(.data) for .data
    mpu6050.o(i.MPU6050_CalOff_Acc) refers to mpu6050.o(.data) for .data
    mpu6050.o(i.MPU6050_CalOff_Gyr) refers to mpu6050.o(.data) for .data
    mpu6050.o(i.MPU6050_Check) refers to mpu6050.o(i.MPU6050_testConnection) for MPU6050_testConnection
    mpu6050.o(i.MPU6050_GyroRead) refers to mpu6050.o(i.MPU6050_ReadMultBytes) for MPU6050_ReadMultBytes
    mpu6050.o(i.MPU6050_Init) refers to mpu6050.o(i.MPU6050_WriteByte) for MPU6050_WriteByte
    mpu6050.o(i.MPU6050_Init) refers to delay.o(i.Delay_ms) for Delay_ms
    mpu6050.o(i.MPU6050_Init) refers to iic.o(i.IIC_ADD_read) for IIC_ADD_read
    mpu6050.o(i.MPU6050_OffSet) refers to aeabi_sdiv.o(.text) for __aeabi_idivmod
    mpu6050.o(i.MPU6050_OffSet) refers to mpu6050.o(.data) for .data
    mpu6050.o(i.MPU6050_Offset) refers to rt_memcpy.o(.text) for __aeabi_memcpy
    mpu6050.o(i.MPU6050_Offset) refers to mpu6050.o(i.MPU6050_OffSet) for MPU6050_OffSet
    mpu6050.o(i.MPU6050_Offset) refers to mpu6050.o(.bss) for .bss
    mpu6050.o(i.MPU6050_Offset) refers to mpu6050.o(.data) for .data
    mpu6050.o(i.MPU6050_Read) refers to mpu6050.o(i.MPU6050_ReadMultBytes) for MPU6050_ReadMultBytes
    mpu6050.o(i.MPU6050_Read) refers to mpu6050.o(.bss) for .bss
    mpu6050.o(i.MPU6050_ReadByte) refers to iic.o(i.IIC_ReadByteFromSlave) for IIC_ReadByteFromSlave
    mpu6050.o(i.MPU6050_ReadMultBytes) refers to iic.o(i.IIC_ReadMultByteFromSlave) for IIC_ReadMultByteFromSlave
    mpu6050.o(i.MPU6050_TempRead) refers to mpu6050.o(i.MPU6050_ReadMultBytes) for MPU6050_ReadMultBytes
    mpu6050.o(i.MPU6050_TempRead) refers to fflti.o(.text) for __aeabi_i2f
    mpu6050.o(i.MPU6050_TempRead) refers to fdiv.o(.text) for __aeabi_fdiv
    mpu6050.o(i.MPU6050_TempRead) refers to faddsub.o(x$fpl$fadd) for __aeabi_fadd
    mpu6050.o(i.MPU6050_WriteByte) refers to iic.o(i.IIC_WriteByteToSlave) for IIC_WriteByteToSlave
    mpu6050.o(i.MPU6050_WriteMultBytes) refers to iic.o(i.IIC_WriteMultByteToSlave) for IIC_WriteMultByteToSlave
    mpu6050.o(i.MPU6050_getDeviceID) refers to iic.o(i.IIC_ADD_read) for IIC_ADD_read
    mpu6050.o(i.MPU6050_testConnection) refers to mpu6050.o(i.MPU6050_getDeviceID) for MPU6050_getDeviceID
    nvic.o(i.NvicConfig) refers to stm32f0xx_misc.o(i.NVIC_Init) for NVIC_Init
    spi.o(i.SPI1_WriteReadByte) refers to stm32f0xx_spi.o(i.SPI_I2S_GetFlagStatus) for SPI_I2S_GetFlagStatus
    spi.o(i.SPI1_WriteReadByte) refers to stm32f0xx_spi.o(i.SPI_SendData8) for SPI_SendData8
    spi.o(i.SPI1_WriteReadByte) refers to stm32f0xx_spi.o(i.SPI_ReceiveData8) for SPI_ReceiveData8
    spi.o(i.SPI_GPIO_Init) refers to stm32f0xx_rcc.o(i.RCC_AHBPeriphClockCmd) for RCC_AHBPeriphClockCmd
    spi.o(i.SPI_GPIO_Init) refers to stm32f0xx_rcc.o(i.RCC_APB2PeriphClockCmd) for RCC_APB2PeriphClockCmd
    spi.o(i.SPI_GPIO_Init) refers to stm32f0xx_gpio.o(i.GPIO_PinAFConfig) for GPIO_PinAFConfig
    spi.o(i.SPI_GPIO_Init) refers to stm32f0xx_gpio.o(i.GPIO_Init) for GPIO_Init
    spi.o(i.SPI_GPIO_Init) refers to stm32f0xx_spi.o(i.SPI_I2S_DeInit) for SPI_I2S_DeInit
    spi.o(i.SPI_GPIO_Init) refers to stm32f0xx_spi.o(i.SPI_Init) for SPI_Init
    spi.o(i.SPI_GPIO_Init) refers to stm32f0xx_spi.o(i.SPI_RxFIFOThresholdConfig) for SPI_RxFIFOThresholdConfig
    spi.o(i.SPI_GPIO_Init) refers to stm32f0xx_spi.o(i.SPI_Cmd) for SPI_Cmd
    spi.o(i.SPI_Read_byte) refers to stm32f0xx_spi.o(i.SPI_I2S_GetFlagStatus) for SPI_I2S_GetFlagStatus
    spi.o(i.SPI_Read_byte) refers to stm32f0xx_spi.o(i.SPI_I2S_ReceiveData16) for SPI_I2S_ReceiveData16
    spi.o(i.SPI_Write_byte) refers to stm32f0xx_spi.o(i.SPI_I2S_GetFlagStatus) for SPI_I2S_GetFlagStatus
    spi.o(i.SPI_Write_byte) refers to stm32f0xx_spi.o(i.SPI_I2S_SendData16) for SPI_I2S_SendData16
    system.o(i.System_Init) refers to nvic.o(i.NvicConfig) for NvicConfig
    system.o(i.System_Init) refers to led.o(i.LED_Init) for LED_Init
    system.o(i.System_Init) refers to delay.o(i.Delay_Init) for Delay_Init
    system.o(i.System_Init) refers to usart.o(i.USART_init) for USART_init
    system.o(i.System_Init) refers to paramsave.o(i.PID_ReadFlash) for PID_ReadFlash
    system.o(i.System_Init) refers to pid.o(i.PidParameter_init) for PidParameter_init
    system.o(i.System_Init) refers to iic.o(i.IIC_GPIO_Init) for IIC_GPIO_Init
    system.o(i.System_Init) refers to tim.o(i.TIM_Init) for TIM_Init
    system.o(i.System_Init) refers to exit.o(i.Exit_Init) for Exit_Init
    system.o(i.System_Init) refers to si24r1.o(i.SI24R1_Init) for SI24R1_Init
    system.o(i.System_Init) refers to si24r1.o(i.SI24R1_Config) for SI24R1_Config
    system.o(i.System_Init) refers to mpu6050.o(i.MPU6050_Init) for MPU6050_Init
    system.o(i.System_Init) refers to bmp280.o(i.bmp280Init) for bmp280Init
    system.o(i.System_Init) refers to motor.o(i.MOTOR_Init) for MOTOR_Init
    system.o(i.System_Init) refers to power.o(i.BATT_Init) for BATT_Init
    system.o(i.System_Init) refers to delay.o(i.Delay_ms) for Delay_ms
    system.o(i.Task_Schedule) refers to ano_dt.o(i.ANO_DT_Data_Exchange) for ANO_DT_Data_Exchange
    system.o(i.Task_Schedule) refers to imu.o(i.Prepare_Data) for Prepare_Data
    system.o(i.Task_Schedule) refers to imu.o(i.IMUupdate) for IMUupdate
    system.o(i.Task_Schedule) refers to control.o(i.Control) for Control
    system.o(i.Task_Schedule) refers to altitude.o(i.Altitude_Combine) for Altitude_Combine
    system.o(i.Task_Schedule) refers to led.o(i.LED_Run) for LED_Run
    system.o(i.Task_Schedule) refers to remotedata.o(i.Deblocking) for Deblocking
    system.o(i.Task_Schedule) refers to bmp280.o(i.bmp280GetData) for bmp280GetData
    system.o(i.Task_Schedule) refers to altitude.o(i.Altitude_Control) for Altitude_Control
    system.o(i.Task_Schedule) refers to remotedata.o(i.SI24R1_SingalCheck) for SI24R1_SingalCheck
    system.o(i.Task_Schedule) refers to remotedata.o(i.SendToRemote) for SendToRemote
    system.o(i.Task_Schedule) refers to power.o(i.LowVoltage_Alarm) for LowVoltage_Alarm
    system.o(i.Task_Schedule) refers to stm32f0xx_it.o(.data) for ANO_Scan
    system.o(i.Task_Schedule) refers to imu.o(.bss) for Att_Angle
    system.o(i.Task_Schedule) refers to imu.o(.bss) for Acc_filt
    system.o(i.Task_Schedule) refers to control.o(.data) for Airplane_Enable
    system.o(i.Task_Schedule) refers to remotedata.o(.bss) for RC_Control
    system.o(i.Task_Schedule) refers to bmp280.o(.bss) for Bmp280
    tim.o(i.TIM_Init) refers to stm32f0xx_rcc.o(i.RCC_APB1PeriphClockCmd) for RCC_APB1PeriphClockCmd
    tim.o(i.TIM_Init) refers to stm32f0xx_tim.o(i.TIM_TimeBaseInit) for TIM_TimeBaseInit
    tim.o(i.TIM_Init) refers to stm32f0xx_tim.o(i.TIM_ITConfig) for TIM_ITConfig
    tim.o(i.TIM_Init) refers to stm32f0xx_tim.o(i.TIM_Cmd) for TIM_Cmd
    imu.o(i.IMUupdate) refers to rt_memcpy.o(.emb_text) for __aeabi_memcpy4
    imu.o(i.IMUupdate) refers to fmul.o(x$fpl$fmul) for __aeabi_fmul
    imu.o(i.IMUupdate) refers to faddsub.o(x$fpl$fadd) for __aeabi_fadd
    imu.o(i.IMUupdate) refers to imu.o(i.invSqrt) for invSqrt
    imu.o(i.IMUupdate) refers to faddsub.o(x$fpl$fsub) for __aeabi_fsub
    imu.o(i.IMUupdate) refers to fscalbn.o(.text) for __ARM_scalbnf
    imu.o(i.IMUupdate) refers to f2d.o(.text) for __aeabi_f2d
    imu.o(i.IMUupdate) refers to asin.o(i.asin) for asin
    imu.o(i.IMUupdate) refers to dmul.o(.text) for __aeabi_dmul
    imu.o(i.IMUupdate) refers to d2f.o(.text) for __aeabi_d2f
    imu.o(i.IMUupdate) refers to imu.o(.constdata) for .constdata
    imu.o(i.IMUupdate) refers to imu.o(.data) for .data
    imu.o(i.IMUupdate) refers to atan2.o(i.atan2) for atan2
    imu.o(i.IMUupdate) refers to imu.o(.bss) for .bss
    imu.o(i.Prepare_Data) refers to mpu6050.o(i.MPU6050_Read) for MPU6050_Read
    imu.o(i.Prepare_Data) refers to mpu6050.o(i.MPU6050_Offset) for MPU6050_Offset
    imu.o(i.Prepare_Data) refers to filter.o(i.SortAver_FilterXYZ) for SortAver_FilterXYZ
    imu.o(i.Prepare_Data) refers to fmul.o(x$fpl$fmul) for __aeabi_fmul
    imu.o(i.Prepare_Data) refers to fflti.o(.text) for __aeabi_i2f
    imu.o(i.Prepare_Data) refers to faddsub.o(x$fpl$fadd) for __aeabi_fadd
    imu.o(i.Prepare_Data) refers to imu.o(.bss) for .bss
    imu.o(i.Prepare_Data) refers to mpu6050.o(.data) for MPU6050_ACC_RAW
    imu.o(i.Prepare_Data) refers to imu.o(.data) for .data
    imu.o(i.invSqrt) refers to fscalbn.o(.text) for __ARM_scalbnf
    imu.o(i.invSqrt) refers to fmul.o(x$fpl$fmul) for __aeabi_fmul
    imu.o(i.invSqrt) refers to faddsub.o(x$fpl$frsb) for __aeabi_frsub
    filter.o(i.Aver_Filter) refers to faddsub.o(x$fpl$fadd) for __aeabi_fadd
    filter.o(i.Aver_Filter) refers to fflti.o(.text) for __aeabi_ui2f
    filter.o(i.Aver_Filter) refers to fdiv.o(.text) for __aeabi_fdiv
    filter.o(i.Aver_Filter) refers to filter.o(.data) for .data
    filter.o(i.Aver_Filter) refers to filter.o(.bss) for .bss
    filter.o(i.Aver_Filter1) refers to faddsub.o(x$fpl$fadd) for __aeabi_fadd
    filter.o(i.Aver_Filter1) refers to fflti.o(.text) for __aeabi_ui2f
    filter.o(i.Aver_Filter1) refers to fdiv.o(.text) for __aeabi_fdiv
    filter.o(i.Aver_Filter1) refers to filter.o(.data) for .data
    filter.o(i.Aver_Filter1) refers to filter.o(.bss) for .bss
    filter.o(i.Aver_FilterXYZ) refers to aeabi_sdiv.o(.text) for __aeabi_idivmod
    filter.o(i.Aver_FilterXYZ) refers to fflti.o(.text) for __aeabi_i2f
    filter.o(i.Aver_FilterXYZ) refers to filter.o(.data) for .data
    filter.o(i.Aver_FilterXYZ) refers to filter.o(.bss) for .bss
    filter.o(i.Aver_FilterXYZ6) refers to fflti.o(.text) for __aeabi_i2f
    filter.o(i.Aver_FilterXYZ6) refers to faddsub.o(x$fpl$fadd) for __aeabi_fadd
    filter.o(i.Aver_FilterXYZ6) refers to fdiv.o(.text) for __aeabi_fdiv
    filter.o(i.Aver_FilterXYZ6) refers to filter.o(.data) for .data
    filter.o(i.Aver_FilterXYZ6) refers to filter.o(.bss) for .bss
    filter.o(i.FindPos) refers to frlef.o(x$fpl$frleqf) for __aeabi_cfrcmple
    filter.o(i.FindPos) refers to flef.o(x$fpl$fleqf) for __aeabi_cfcmple
    filter.o(i.FindPos) refers to fflti.o(.text) for __aeabi_i2f
    filter.o(i.LPF_1) refers to faddsub.o(x$fpl$fsub) for __aeabi_fsub
    filter.o(i.LPF_1) refers to fmul.o(x$fpl$fmul) for __aeabi_fmul
    filter.o(i.LPF_1) refers to fdiv.o(.text) for __aeabi_fdiv
    filter.o(i.LPF_1) refers to faddsub.o(x$fpl$fadd) for __aeabi_fadd
    filter.o(i.QuiteSort) refers to filter.o(i.FindPos) for FindPos
    filter.o(i.QuiteSort) refers to ffixi.o(.text) for __aeabi_f2iz
    filter.o(i.SortAver_Filter) refers to filter.o(i.QuiteSort) for QuiteSort
    filter.o(i.SortAver_Filter) refers to faddsub.o(x$fpl$fadd) for __aeabi_fadd
    filter.o(i.SortAver_Filter) refers to fflti.o(.text) for __aeabi_i2f
    filter.o(i.SortAver_Filter) refers to fdiv.o(.text) for __aeabi_fdiv
    filter.o(i.SortAver_Filter) refers to filter.o(.data) for .data
    filter.o(i.SortAver_Filter) refers to filter.o(.bss) for .bss
    filter.o(i.SortAver_Filter1) refers to filter.o(i.QuiteSort) for QuiteSort
    filter.o(i.SortAver_Filter1) refers to faddsub.o(x$fpl$fadd) for __aeabi_fadd
    filter.o(i.SortAver_Filter1) refers to fflti.o(.text) for __aeabi_i2f
    filter.o(i.SortAver_Filter1) refers to fdiv.o(.text) for __aeabi_fdiv
    filter.o(i.SortAver_Filter1) refers to filter.o(.data) for .data
    filter.o(i.SortAver_Filter1) refers to filter.o(.bss) for .bss
    filter.o(i.SortAver_FilterXYZ) refers to fflti.o(.text) for __aeabi_i2f
    filter.o(i.SortAver_FilterXYZ) refers to filter.o(i.QuiteSort) for QuiteSort
    filter.o(i.SortAver_FilterXYZ) refers to faddsub.o(x$fpl$fadd) for __aeabi_fadd
    filter.o(i.SortAver_FilterXYZ) refers to fdiv.o(.text) for __aeabi_fdiv
    filter.o(i.SortAver_FilterXYZ) refers to filter.o(.data) for .data
    filter.o(i.SortAver_FilterXYZ) refers to filter.o(.bss) for .bss
    filter.o(i.limit_filter) refers to filter.o(i.LPF_1) for LPF_1
    filter.o(i.limit_filter) refers to frlef.o(x$fpl$frleqf) for __aeabi_cfrcmple
    control.o(i.Control) refers to fflti.o(.text) for __aeabi_i2f
    control.o(i.Control) refers to fdiv.o(.text) for __aeabi_fdiv
    control.o(i.Control) refers to flef.o(x$fpl$fleqf) for __aeabi_cfcmple
    control.o(i.Control) refers to control.o(i.Yaw_Carefree) for Yaw_Carefree
    control.o(i.Control) refers to pid.o(i.PID_Postion_Cal) for PID_Postion_Cal
    control.o(i.Control) refers to fmul.o(x$fpl$fmul) for __aeabi_fmul
    control.o(i.Control) refers to ffixi.o(.text) for __aeabi_f2iz
    control.o(i.Control) refers to motor.o(i.Moto_Pwm) for Moto_Pwm
    control.o(i.Control) refers to faddsub.o(x$fpl$fadd) for __aeabi_fadd
    control.o(i.Control) refers to faddsub.o(x$fpl$fsub) for __aeabi_fsub
    control.o(i.Control) refers to control.o(.data) for .data
    control.o(i.Control) refers to mpu6050.o(.data) for SENSER_OFFSET_FLAG
    control.o(i.Control) refers to control.o(.bss) for .bss
    control.o(i.Safety_Check) refers to frlef.o(x$fpl$frleqf) for __aeabi_cfrcmple
    control.o(i.Safety_Check) refers to imu.o(.bss) for Att_Angle
    control.o(i.Safety_Check) refers to imu.o(.bss) for Acc_filt
    control.o(i.Safety_Check) refers to control.o(.data) for .data
    control.o(i.Yaw_Carefree) refers to fmul.o(x$fpl$fmul) for __aeabi_fmul
    control.o(i.Yaw_Carefree) refers to cosf.o(i.cosf) for cosf
    control.o(i.Yaw_Carefree) refers to sinf.o(i.sinf) for sinf
    control.o(i.Yaw_Carefree) refers to faddsub.o(x$fpl$fadd) for __aeabi_fadd
    control.o(i.Yaw_Carefree) refers to faddsub.o(x$fpl$fsub) for __aeabi_fsub
    control.o(i.Yaw_Control) refers to control.o(.data) for .data
    pid.o(i.PID_Postion_Cal) refers to faddsub.o(x$fpl$fsub) for __aeabi_fsub
    pid.o(i.PID_Postion_Cal) refers to fmul.o(x$fpl$fmul) for __aeabi_fmul
    pid.o(i.PID_Postion_Cal) refers to fflti.o(.text) for __aeabi_ui2f
    pid.o(i.PID_Postion_Cal) refers to faddsub.o(x$fpl$fadd) for __aeabi_fadd
    pid.o(i.PID_Postion_Cal) refers to frlef.o(x$fpl$frleqf) for __aeabi_cfrcmple
    pid.o(i.PID_Postion_Cal) refers to control.o(.data) for Airplane_Enable
    pid.o(i.PID_Postion_Cal) refers to remotedata.o(.bss) for RC_Control
    pid.o(i.PidParameter_init) refers to control.o(.bss) for PID_ROL_Rate
    pid.o(i.PidParameter_init) refers to control.o(.bss) for PID_ALT_Rate
    paramsave.o(i.DefaultParams) refers to paramsave.o(.bss) for .bss
    paramsave.o(i.DefaultParams_WriteFlash) refers to paramsave.o(i.DefaultParams) for DefaultParams
    paramsave.o(i.DefaultParams_WriteFlash) refers to flash.o(i.STMFLASH_Write) for STMFLASH_Write
    paramsave.o(i.DefaultParams_WriteFlash) refers to paramsave.o(.bss) for .bss
    paramsave.o(i.PID_ClearFlash) refers to paramsave.o(i.ParamsClearAll) for ParamsClearAll
    paramsave.o(i.PID_ClearFlash) refers to flash.o(i.STMFLASH_Write) for STMFLASH_Write
    paramsave.o(i.PID_ClearFlash) refers to paramsave.o(.bss) for .bss
    paramsave.o(i.PID_ReadFlash) refers to flash.o(i.STMFLASH_Read) for STMFLASH_Read
    paramsave.o(i.PID_ReadFlash) refers to paramsave.o(i.TableToParams) for TableToParams
    paramsave.o(i.PID_ReadFlash) refers to usart.o(i.usart_send) for usart_send
    paramsave.o(i.PID_ReadFlash) refers to paramsave.o(i.DefaultParams_WriteFlash) for DefaultParams_WriteFlash
    paramsave.o(i.PID_ReadFlash) refers to paramsave.o(.bss) for .bss
    paramsave.o(i.PID_WriteFlash) refers to paramsave.o(i.ParamsToTable) for ParamsToTable
    paramsave.o(i.PID_WriteFlash) refers to flash.o(i.STMFLASH_Write) for STMFLASH_Write
    paramsave.o(i.PID_WriteFlash) refers to paramsave.o(.bss) for .bss
    paramsave.o(i.ParamsClearAll) refers to paramsave.o(.bss) for .bss
    paramsave.o(i.ParamsToTable) refers to fmul.o(x$fpl$fmul) for __aeabi_fmul
    paramsave.o(i.ParamsToTable) refers to ffixui.o(.text) for __aeabi_f2uiz
    paramsave.o(i.ParamsToTable) refers to mpu6050.o(.data) for ACC_OFFSET_RAW
    paramsave.o(i.ParamsToTable) refers to paramsave.o(.bss) for .bss
    paramsave.o(i.ParamsToTable) refers to control.o(.bss) for PID_ROL_Angle
    paramsave.o(i.ParamsToTable) refers to control.o(.bss) for PID_ALT_Rate
    paramsave.o(i.TableToParams) refers to fflti.o(.text) for __aeabi_ui2f
    paramsave.o(i.TableToParams) refers to fdiv.o(.text) for __aeabi_fdiv
    paramsave.o(i.TableToParams) refers to paramsave.o(.bss) for .bss
    paramsave.o(i.TableToParams) refers to mpu6050.o(.data) for ACC_OFFSET_RAW
    paramsave.o(i.TableToParams) refers to control.o(.bss) for PID_ROL_Angle
    paramsave.o(i.TableToParams) refers to control.o(.bss) for PID_ALT_Rate
    ano_dt.o(i.ANO_DT_Data_Exchange) refers to ffixi.o(.text) for __aeabi_f2iz
    ano_dt.o(i.ANO_DT_Data_Exchange) refers to ano_dt.o(i.ANO_DT_Send_Status) for ANO_DT_Send_Status
    ano_dt.o(i.ANO_DT_Data_Exchange) refers to fflti.o(.text) for __aeabi_i2f
    ano_dt.o(i.ANO_DT_Data_Exchange) refers to fmul.o(x$fpl$fmul) for __aeabi_fmul
    ano_dt.o(i.ANO_DT_Data_Exchange) refers to ano_dt.o(i.ANO_DT_Send_Senser) for ANO_DT_Send_Senser
    ano_dt.o(i.ANO_DT_Data_Exchange) refers to ano_dt.o(i.ANO_DT_Send_ALT) for ANO_DT_Send_ALT
    ano_dt.o(i.ANO_DT_Data_Exchange) refers to ano_dt.o(i.ANO_DT_Send_RCData) for ANO_DT_Send_RCData
    ano_dt.o(i.ANO_DT_Data_Exchange) refers to ffixui.o(.text) for __aeabi_f2uiz
    ano_dt.o(i.ANO_DT_Data_Exchange) refers to ano_dt.o(i.ANO_DT_Send_MotoPWM) for ANO_DT_Send_MotoPWM
    ano_dt.o(i.ANO_DT_Data_Exchange) refers to ano_dt.o(i.ANO_DT_Send_PID) for ANO_DT_Send_PID
    ano_dt.o(i.ANO_DT_Data_Exchange) refers to ano_dt.o(.data) for .data
    ano_dt.o(i.ANO_DT_Data_Exchange) refers to ano_dt.o(.bss) for .bss
    ano_dt.o(i.ANO_DT_Data_Exchange) refers to altitude.o(.bss) for nav
    ano_dt.o(i.ANO_DT_Data_Exchange) refers to control.o(.data) for Airplane_Enable
    ano_dt.o(i.ANO_DT_Data_Exchange) refers to imu.o(.bss) for Att_Angle
    ano_dt.o(i.ANO_DT_Data_Exchange) refers to imu.o(.bss) for Gyr_rad
    ano_dt.o(i.ANO_DT_Data_Exchange) refers to bmp280.o(.bss) for Bmp280
    ano_dt.o(i.ANO_DT_Data_Exchange) refers to remotedata.o(.bss) for RC_Control
    ano_dt.o(i.ANO_DT_Data_Exchange) refers to control.o(.bss) for PID_YAW_Rate
    ano_dt.o(i.ANO_DT_Data_Exchange) refers to control.o(.bss) for PID_ALT_Rate
    ano_dt.o(i.ANO_DT_Data_Receive_Anl) refers to paramsave.o(i.PID_WriteFlash) for PID_WriteFlash
    ano_dt.o(i.ANO_DT_Data_Receive_Anl) refers to dflti.o(.text) for __aeabi_i2d
    ano_dt.o(i.ANO_DT_Data_Receive_Anl) refers to dmul.o(.text) for __aeabi_dmul
    ano_dt.o(i.ANO_DT_Data_Receive_Anl) refers to d2f.o(.text) for __aeabi_d2f
    ano_dt.o(i.ANO_DT_Data_Receive_Anl) refers to ano_dt.o(i.ANO_DT_Send_Check) for ANO_DT_Send_Check
    ano_dt.o(i.ANO_DT_Data_Receive_Anl) refers to mpu6050.o(.data) for SENSER_OFFSET_FLAG
    ano_dt.o(i.ANO_DT_Data_Receive_Anl) refers to ano_dt.o(.data) for .data
    ano_dt.o(i.ANO_DT_Data_Receive_Anl) refers to control.o(.data) for Airplane_Enable
    ano_dt.o(i.ANO_DT_Data_Receive_Anl) refers to ano_dt.o(.bss) for .bss
    ano_dt.o(i.ANO_DT_Data_Receive_Anl) refers to control.o(.bss) for PID_ROL_Rate
    ano_dt.o(i.ANO_DT_Data_Receive_Anl) refers to control.o(.bss) for PID_ALT_Rate
    ano_dt.o(i.ANO_DT_Data_Receive_Prepare) refers to ano_dt.o(i.ANO_DT_Data_Receive_Anl) for ANO_DT_Data_Receive_Anl
    ano_dt.o(i.ANO_DT_Data_Receive_Prepare) refers to ano_dt.o(.data) for .data
    ano_dt.o(i.ANO_DT_Data_Receive_Prepare) refers to ano_dt.o(.bss) for .bss
    ano_dt.o(i.ANO_DT_Send_ALT) refers to ffixi.o(.text) for __aeabi_f2iz
    ano_dt.o(i.ANO_DT_Send_ALT) refers to ffixui.o(.text) for __aeabi_f2uiz
    ano_dt.o(i.ANO_DT_Send_ALT) refers to ano_dt.o(i.ANO_DT_Send_Data) for ANO_DT_Send_Data
    ano_dt.o(i.ANO_DT_Send_ALT) refers to ano_dt.o(.bss) for .bss
    ano_dt.o(i.ANO_DT_Send_Check) refers to ano_dt.o(i.ANO_DT_Send_Data) for ANO_DT_Send_Data
    ano_dt.o(i.ANO_DT_Send_Check) refers to ano_dt.o(.bss) for .bss
    ano_dt.o(i.ANO_DT_Send_Data) refers to usart.o(i.usart_send) for usart_send
    ano_dt.o(i.ANO_DT_Send_MotoPWM) refers to ano_dt.o(i.ANO_DT_Send_Data) for ANO_DT_Send_Data
    ano_dt.o(i.ANO_DT_Send_MotoPWM) refers to ano_dt.o(.bss) for .bss
    ano_dt.o(i.ANO_DT_Send_PID) refers to fmul.o(x$fpl$fmul) for __aeabi_fmul
    ano_dt.o(i.ANO_DT_Send_PID) refers to ffixi.o(.text) for __aeabi_f2iz
    ano_dt.o(i.ANO_DT_Send_PID) refers to ano_dt.o(i.ANO_DT_Send_Data) for ANO_DT_Send_Data
    ano_dt.o(i.ANO_DT_Send_PID) refers to ano_dt.o(.bss) for .bss
    ano_dt.o(i.ANO_DT_Send_Power) refers to ano_dt.o(i.ANO_DT_Send_Data) for ANO_DT_Send_Data
    ano_dt.o(i.ANO_DT_Send_Power) refers to ano_dt.o(.bss) for .bss
    ano_dt.o(i.ANO_DT_Send_RCData) refers to ano_dt.o(i.ANO_DT_Send_Data) for ANO_DT_Send_Data
    ano_dt.o(i.ANO_DT_Send_RCData) refers to ano_dt.o(.bss) for .bss
    ano_dt.o(i.ANO_DT_Send_Senser) refers to ano_dt.o(i.ANO_DT_Send_Data) for ANO_DT_Send_Data
    ano_dt.o(i.ANO_DT_Send_Senser) refers to ano_dt.o(.bss) for .bss
    ano_dt.o(i.ANO_DT_Send_Status) refers to fmul.o(x$fpl$fmul) for __aeabi_fmul
    ano_dt.o(i.ANO_DT_Send_Status) refers to ffixi.o(.text) for __aeabi_f2iz
    ano_dt.o(i.ANO_DT_Send_Status) refers to ano_dt.o(i.ANO_DT_Send_Data) for ANO_DT_Send_Data
    ano_dt.o(i.ANO_DT_Send_Status) refers to ano_dt.o(.bss) for .bss
    ano_dt.o(i.Data_Send_AngleRate) refers to ano_dt.o(i.ANO_DT_Send_Data) for ANO_DT_Send_Data
    ano_dt.o(i.Data_Send_AngleRate) refers to ano_dt.o(.bss) for .bss
    remotedata.o(i.Deblocking) refers to control.o(.data) for Airplane_Enable
    remotedata.o(i.Deblocking) refers to remotedata.o(.bss) for .bss
    remotedata.o(i.Deblocking) refers to remotedata.o(.data) for .data
    remotedata.o(i.Remote_Data_ReceiveAnalysis) refers to control.o(.data) for SI24R1_Controlflag
    remotedata.o(i.Remote_Data_ReceiveAnalysis) refers to si24r1.o(.bss) for SI24R1_RX_DATA
    remotedata.o(i.Remote_Data_ReceiveAnalysis) refers to remotedata.o(.data) for .data
    remotedata.o(i.Remote_Data_ReceiveAnalysis) refers to mpu6050.o(.data) for SENSER_OFFSET_FLAG
    remotedata.o(i.Remote_Data_ReceiveAnalysis) refers to remotedata.o(.bss) for .bss
    remotedata.o(i.SI24R1_SingalCheck) refers to control.o(.data) for SI24R1_Controlflag
    remotedata.o(i.SI24R1_SingalCheck) refers to remotedata.o(.data) for .data
    remotedata.o(i.SendToRemote) refers to ffixi.o(.text) for __aeabi_f2iz
    remotedata.o(i.SendToRemote) refers to fmul.o(x$fpl$fmul) for __aeabi_fmul
    remotedata.o(i.SendToRemote) refers to si24r1.o(i.SI24R1_TxPacket) for SI24R1_TxPacket
    remotedata.o(i.SendToRemote) refers to control.o(.data) for Airplane_Enable
    remotedata.o(i.SendToRemote) refers to mpu6050.o(.data) for SENSER_OFFSET_FLAG
    remotedata.o(i.SendToRemote) refers to si24r1.o(.bss) for SI24R1_TX_DATA
    remotedata.o(i.SendToRemote) refers to power.o(.data) for BAT
    remotedata.o(i.SendToRemote) refers to imu.o(.bss) for Att_Angle
    remotedata.o(i.SendToRemote) refers to bmp280.o(.bss) for Bmp280
    remotedata.o(i.UnControl_Land) refers to remotedata.o(.bss) for .bss
    bmp280.o(i.bmp280CompensateP) refers to llmul.o(.text) for __aeabi_lmul
    bmp280.o(i.bmp280CompensateP) refers to llsdiv.o(.text) for __aeabi_ldivmod
    bmp280.o(i.bmp280CompensateP) refers to bmp280.o(.bss) for .bss
    bmp280.o(i.bmp280GetData) refers to iic.o(i.IIC_ReadMultByteFromSlave) for IIC_ReadMultByteFromSlave
    bmp280.o(i.bmp280GetData) refers to fflti.o(.text) for __aeabi_i2f
    bmp280.o(i.bmp280GetData) refers to fdiv.o(.text) for __aeabi_fdiv
    bmp280.o(i.bmp280GetData) refers to bmp280.o(i.bmp280CompensateP) for bmp280CompensateP
    bmp280.o(i.bmp280GetData) refers to bmp280.o(i.bmp280PressureToAltitude) for bmp280PressureToAltitude
    bmp280.o(i.bmp280GetData) refers to faddsub.o(x$fpl$fadd) for __aeabi_fadd
    bmp280.o(i.bmp280GetData) refers to faddsub.o(x$fpl$fsub) for __aeabi_fsub
    bmp280.o(i.bmp280GetData) refers to bmp280.o(.data) for .data
    bmp280.o(i.bmp280GetData) refers to bmp280.o(.bss) for .bss
    bmp280.o(i.bmp280Init) refers to iic.o(i.IIC_GPIO_Init) for IIC_GPIO_Init
    bmp280.o(i.bmp280Init) refers to delay.o(i.Delay_ms) for Delay_ms
    bmp280.o(i.bmp280Init) refers to iic.o(i.IIC_ReadByteFromSlave) for IIC_ReadByteFromSlave
    bmp280.o(i.bmp280Init) refers to stm32f0xx_gpio.o(i.GPIO_ResetBits) for GPIO_ResetBits
    bmp280.o(i.bmp280Init) refers to iic.o(i.IIC_ReadMultByteFromSlave) for IIC_ReadMultByteFromSlave
    bmp280.o(i.bmp280Init) refers to iic.o(i.IIC_WriteByteToSlave) for IIC_WriteByteToSlave
    bmp280.o(i.bmp280Init) refers to iic.o(i.IIC_ADD_read) for IIC_ADD_read
    bmp280.o(i.bmp280Init) refers to bmp280.o(.data) for .data
    bmp280.o(i.bmp280Init) refers to bmp280.o(.bss) for .bss
    bmp280.o(i.bmp280PressureToAltitude) refers to fdiv.o(.text) for __aeabi_fdiv
    bmp280.o(i.bmp280PressureToAltitude) refers to f2d.o(.text) for __aeabi_f2d
    bmp280.o(i.bmp280PressureToAltitude) refers to pow.o(i.pow) for pow
    bmp280.o(i.bmp280PressureToAltitude) refers to daddsub.o(.text) for __aeabi_dsub
    bmp280.o(i.bmp280PressureToAltitude) refers to dmul.o(.text) for __aeabi_dmul
    bmp280.o(i.bmp280PressureToAltitude) refers to ddiv.o(.text) for __aeabi_ddiv
    bmp280.o(i.bmp280PressureToAltitude) refers to d2f.o(.text) for __aeabi_d2f
    si24r1.o(i.SI24R1_Check) refers to usart.o(i.usart_send) for usart_send
    si24r1.o(i.SI24R1_Check) refers to si24r1.o(i.SI24R1_testConnection) for SI24R1_testConnection
    si24r1.o(i.SI24R1_Config) refers to stm32f0xx_gpio.o(i.GPIO_ResetBits) for GPIO_ResetBits
    si24r1.o(i.SI24R1_Config) refers to si24r1.o(i.SI24R1_Write_Buf) for SI24R1_Write_Buf
    si24r1.o(i.SI24R1_Config) refers to si24r1.o(i.SI24R1_write_reg) for SI24R1_write_reg
    si24r1.o(i.SI24R1_Config) refers to si24r1.o(i.SI24R1set_Mode) for SI24R1set_Mode
    si24r1.o(i.SI24R1_Config) refers to stm32f0xx_gpio.o(i.GPIO_SetBits) for GPIO_SetBits
    si24r1.o(i.SI24R1_Config) refers to si24r1.o(.data) for .data
    si24r1.o(i.SI24R1_GetAddr) refers to rand.o(.text) for srand
    si24r1.o(i.SI24R1_GetAddr) refers to rand.o(.emb_text) for rand
    si24r1.o(i.SI24R1_GetAddr) refers to aeabi_sdiv.o(.text) for __aeabi_idivmod
    si24r1.o(i.SI24R1_GetAddr) refers to paramsave.o(i.PID_WriteFlash) for PID_WriteFlash
    si24r1.o(i.SI24R1_GetAddr) refers to si24r1.o(i.SI24R1_Config) for SI24R1_Config
    si24r1.o(i.SI24R1_GetAddr) refers to si24r1.o(.data) for .data
    si24r1.o(i.SI24R1_Init) refers to stm32f0xx_rcc.o(i.RCC_AHBPeriphClockCmd) for RCC_AHBPeriphClockCmd
    si24r1.o(i.SI24R1_Init) refers to stm32f0xx_gpio.o(i.GPIO_Init) for GPIO_Init
    si24r1.o(i.SI24R1_Init) refers to stm32f0xx_gpio.o(i.GPIO_ResetBits) for GPIO_ResetBits
    si24r1.o(i.SI24R1_Init) refers to spi.o(i.SPI_GPIO_Init) for SPI_GPIO_Init
    si24r1.o(i.SI24R1_Init) refers to stm32f0xx_gpio.o(i.GPIO_SetBits) for GPIO_SetBits
    si24r1.o(i.SI24R1_Init) refers to si24r1.o(i.SI24R1_Check) for SI24R1_Check
    si24r1.o(i.SI24R1_Read_Buf) refers to stm32f0xx_gpio.o(i.GPIO_ResetBits) for GPIO_ResetBits
    si24r1.o(i.SI24R1_Read_Buf) refers to spi.o(i.SPI1_WriteReadByte) for SPI1_WriteReadByte
    si24r1.o(i.SI24R1_Read_Buf) refers to stm32f0xx_gpio.o(i.GPIO_SetBits) for GPIO_SetBits
    si24r1.o(i.SI24R1_RxPacket) refers to si24r1.o(i.SI24R1_Read_Buf) for SI24R1_Read_Buf
    si24r1.o(i.SI24R1_RxPacket) refers to si24r1.o(i.SI24R1_write_reg) for SI24R1_write_reg
    si24r1.o(i.SI24R1_Test) refers to si24r1.o(i.SI24R1_TxPacket) for SI24R1_TxPacket
    si24r1.o(i.SI24R1_Test) refers to si24r1.o(.data) for .data
    si24r1.o(i.SI24R1_Test) refers to si24r1.o(.bss) for .bss
    si24r1.o(i.SI24R1_TxPacket) refers to stm32f0xx_gpio.o(i.GPIO_ResetBits) for GPIO_ResetBits
    si24r1.o(i.SI24R1_TxPacket) refers to si24r1.o(i.SI24R1_Write_Buf) for SI24R1_Write_Buf
    si24r1.o(i.SI24R1_TxPacket) refers to si24r1.o(i.SI24R1_write_reg) for SI24R1_write_reg
    si24r1.o(i.SI24R1_TxPacket) refers to stm32f0xx_gpio.o(i.GPIO_SetBits) for GPIO_SetBits
    si24r1.o(i.SI24R1_TxPacket) refers to delay.o(i.Delay_us) for Delay_us
    si24r1.o(i.SI24R1_TxPacket) refers to si24r1.o(.data) for .data
    si24r1.o(i.SI24R1_Write_Buf) refers to stm32f0xx_gpio.o(i.GPIO_ResetBits) for GPIO_ResetBits
    si24r1.o(i.SI24R1_Write_Buf) refers to spi.o(i.SPI1_WriteReadByte) for SPI1_WriteReadByte
    si24r1.o(i.SI24R1_Write_Buf) refers to stm32f0xx_gpio.o(i.GPIO_SetBits) for GPIO_SetBits
    si24r1.o(i.SI24R1_read_reg) refers to stm32f0xx_gpio.o(i.GPIO_ResetBits) for GPIO_ResetBits
    si24r1.o(i.SI24R1_read_reg) refers to spi.o(i.SPI1_WriteReadByte) for SPI1_WriteReadByte
    si24r1.o(i.SI24R1_read_reg) refers to stm32f0xx_gpio.o(i.GPIO_SetBits) for GPIO_SetBits
    si24r1.o(i.SI24R1_testConnection) refers to si24r1.o(i.SI24R1_Write_Buf) for SI24R1_Write_Buf
    si24r1.o(i.SI24R1_testConnection) refers to si24r1.o(i.SI24R1_Read_Buf) for SI24R1_Read_Buf
    si24r1.o(i.SI24R1_testConnection) refers to si24r1.o(.data) for .data
    si24r1.o(i.SI24R1_write_reg) refers to stm32f0xx_gpio.o(i.GPIO_ResetBits) for GPIO_ResetBits
    si24r1.o(i.SI24R1_write_reg) refers to spi.o(i.SPI1_WriteReadByte) for SPI1_WriteReadByte
    si24r1.o(i.SI24R1_write_reg) refers to stm32f0xx_gpio.o(i.GPIO_SetBits) for GPIO_SetBits
    si24r1.o(i.SI24R1set_Mode) refers to si24r1.o(i.SI24R1_write_reg) for SI24R1_write_reg
    si24r1.o(i.SI24R1set_Mode) refers to delay.o(i.Delay_us) for Delay_us
    si24r1.o(i.SI24R1set_Mode) refers to stm32f0xx_gpio.o(i.GPIO_ResetBits) for GPIO_ResetBits
    si24r1.o(i.SI24R1set_Mode) refers to stm32f0xx_gpio.o(i.GPIO_SetBits) for GPIO_SetBits
    power.o(i.BATT_GetVoltage) refers to power.o(i.Get_BatteryAdc) for Get_BatteryAdc
    power.o(i.BATT_GetVoltage) refers to fflti.o(.text) for __aeabi_ui2f
    power.o(i.BATT_GetVoltage) refers to filter.o(i.Aver_Filter) for Aver_Filter
    power.o(i.BATT_GetVoltage) refers to fmul.o(x$fpl$fmul) for __aeabi_fmul
    power.o(i.BATT_GetVoltage) refers to fdiv.o(.text) for __aeabi_fdiv
    power.o(i.BATT_GetVoltage) refers to fscalbn.o(.text) for __ARM_scalbnf
    power.o(i.BATT_GetVoltage) refers to power.o(.data) for .data
    power.o(i.BATT_Init) refers to stm32f0xx_rcc.o(i.RCC_AHBPeriphClockCmd) for RCC_AHBPeriphClockCmd
    power.o(i.BATT_Init) refers to stm32f0xx_rcc.o(i.RCC_APB2PeriphClockCmd) for RCC_APB2PeriphClockCmd
    power.o(i.BATT_Init) refers to stm32f0xx_gpio.o(i.GPIO_Init) for GPIO_Init
    power.o(i.BATT_Init) refers to stm32f0xx_adc.o(i.ADC_DeInit) for ADC_DeInit
    power.o(i.BATT_Init) refers to stm32f0xx_adc.o(i.ADC_StructInit) for ADC_StructInit
    power.o(i.BATT_Init) refers to stm32f0xx_adc.o(i.ADC_Init) for ADC_Init
    power.o(i.BATT_Init) refers to stm32f0xx_adc.o(i.ADC_ChannelConfig) for ADC_ChannelConfig
    power.o(i.BATT_Init) refers to stm32f0xx_adc.o(i.ADC_GetCalibrationFactor) for ADC_GetCalibrationFactor
    power.o(i.BATT_Init) refers to stm32f0xx_adc.o(i.ADC_Cmd) for ADC_Cmd
    power.o(i.BATT_Init) refers to stm32f0xx_adc.o(i.ADC_GetFlagStatus) for ADC_GetFlagStatus
    power.o(i.BATT_Init) refers to stm32f0xx_adc.o(i.ADC_StartOfConversion) for ADC_StartOfConversion
    power.o(i.Get_BatteryAdc) refers to stm32f0xx_adc.o(i.ADC_GetFlagStatus) for ADC_GetFlagStatus
    power.o(i.Get_BatteryAdc) refers to stm32f0xx_adc.o(i.ADC_GetConversionValue) for ADC_GetConversionValue
    power.o(i.LowVoltage_Alarm) refers to power.o(i.BATT_GetVoltage) for BATT_GetVoltage
    power.o(i.LowVoltage_Alarm) refers to flef.o(x$fpl$fleqf) for __aeabi_cfcmple
    power.o(i.LowVoltage_Alarm) refers to control.o(.data) for Airplane_Enable
    power.o(i.LowVoltage_Alarm) refers to power.o(.data) for .data
    power.o(i.LowVoltage_Alarm) refers to led.o(.data) for Run_flag
    altitude.o(i.Altitude_Combine) refers to faddsub.o(x$fpl$fsub) for __aeabi_fsub
    altitude.o(i.Altitude_Combine) refers to fmul.o(x$fpl$fmul) for __aeabi_fmul
    altitude.o(i.Altitude_Combine) refers to faddsub.o(x$fpl$fadd) for __aeabi_fadd
    altitude.o(i.Altitude_Combine) refers to faddsub.o(x$fpl$frsb) for __aeabi_frsub
    altitude.o(i.Altitude_Combine) refers to fscalbn.o(.text) for __ARM_scalbnf
    altitude.o(i.Altitude_Combine) refers to altitude.o(i.inertial_filter_correct) for inertial_filter_correct
    altitude.o(i.Altitude_Combine) refers to imu.o(.data) for AccbUpdate
    altitude.o(i.Altitude_Combine) refers to altitude.o(.bss) for .bss
    altitude.o(i.Altitude_Combine) refers to imu.o(.bss) for accb
    altitude.o(i.Altitude_Combine) refers to altitude.o(.data) for .data
    altitude.o(i.Altitude_Combine) refers to bmp280.o(.data) for ALT_Updated
    altitude.o(i.Altitude_Combine) refers to bmp280.o(.bss) for Bmp280
    altitude.o(i.Altitude_Control) refers to pid.o(i.PID_Postion_Cal) for PID_Postion_Cal
    altitude.o(i.Altitude_Control) refers to bmp280.o(.bss) for Bmp280
    altitude.o(i.Altitude_Control) refers to control.o(.bss) for PID_ALT
    altitude.o(i.inertial_filter_correct) refers to fmul.o(x$fpl$fmul) for __aeabi_fmul
    altitude.o(i.inertial_filter_correct) refers to faddsub.o(x$fpl$fadd) for __aeabi_fadd
    altitude.o(i.inertial_filter_correct) refers to fdiv.o(.text) for __aeabi_fdiv
    startup_stm32f072.o(STACK) refers (Special) to heapauxi.o(.text) for __use_two_region_memory
    startup_stm32f072.o(HEAP) refers (Special) to heapauxi.o(.text) for __use_two_region_memory
    startup_stm32f072.o(RESET) refers (Special) to heapauxi.o(.text) for __use_two_region_memory
    startup_stm32f072.o(RESET) refers to startup_stm32f072.o(STACK) for __initial_sp
    startup_stm32f072.o(RESET) refers to startup_stm32f072.o(.text) for Reset_Handler
    startup_stm32f072.o(RESET) refers to stm32f0xx_it.o(i.NMI_Handler) for NMI_Handler
    startup_stm32f072.o(RESET) refers to stm32f0xx_it.o(i.HardFault_Handler) for HardFault_Handler
    startup_stm32f072.o(RESET) refers to stm32f0xx_it.o(i.SVC_Handler) for SVC_Handler
    startup_stm32f072.o(RESET) refers to stm32f0xx_it.o(i.PendSV_Handler) for PendSV_Handler
    startup_stm32f072.o(RESET) refers to stm32f0xx_it.o(i.SysTick_Handler) for SysTick_Handler
    startup_stm32f072.o(RESET) refers to stm32f0xx_it.o(i.EXTI0_1_IRQHandler) for EXTI0_1_IRQHandler
    startup_stm32f072.o(RESET) refers to stm32f0xx_it.o(i.TIM2_IRQHandler) for TIM2_IRQHandler
    startup_stm32f072.o(RESET) refers to stm32f0xx_it.o(i.USART1_IRQHandler) for USART1_IRQHandler
    startup_stm32f072.o(.text) refers (Special) to heapauxi.o(.text) for __use_two_region_memory
    startup_stm32f072.o(.text) refers to startup_stm32f072.o(STACK) for __initial_sp
    startup_stm32f072.o(.text) refers to system_stm32f0xx.o(i.SystemInit) for SystemInit
    startup_stm32f072.o(.text) refers to __main.o(!!!main) for __main
    startup_stm32f072.o(.text) refers to startup_stm32f072.o(HEAP) for Heap_Mem
    system_stm32f0xx.o(i.SystemCoreClockUpdate) refers to aeabi_sdiv.o(.text) for __aeabi_uidivmod
    system_stm32f0xx.o(i.SystemCoreClockUpdate) refers to system_stm32f0xx.o(.data) for .data
    system_stm32f0xx.o(i.SystemInit) refers to system_stm32f0xx.o(i.SetSysClock) for SetSysClock
    stm32f0xx_adc.o(i.ADC_DeInit) refers to stm32f0xx_rcc.o(i.RCC_APB2PeriphResetCmd) for RCC_APB2PeriphResetCmd
    stm32f0xx_flash.o(i.FLASH_EraseAllPages) refers to stm32f0xx_flash.o(i.FLASH_WaitForLastOperation) for FLASH_WaitForLastOperation
    stm32f0xx_flash.o(i.FLASH_ErasePage) refers to stm32f0xx_flash.o(i.FLASH_WaitForLastOperation) for FLASH_WaitForLastOperation
    stm32f0xx_flash.o(i.FLASH_OB_BOOT0Config) refers to stm32f0xx_flash.o(i.FLASH_WaitForLastOperation) for FLASH_WaitForLastOperation
    stm32f0xx_flash.o(i.FLASH_OB_BOOT0SWConfig) refers to stm32f0xx_flash.o(i.FLASH_WaitForLastOperation) for FLASH_WaitForLastOperation
    stm32f0xx_flash.o(i.FLASH_OB_BOOTConfig) refers to stm32f0xx_flash.o(i.FLASH_WaitForLastOperation) for FLASH_WaitForLastOperation
    stm32f0xx_flash.o(i.FLASH_OB_EnableWRP) refers to stm32f0xx_flash.o(i.FLASH_WaitForLastOperation) for FLASH_WaitForLastOperation
    stm32f0xx_flash.o(i.FLASH_OB_Erase) refers to stm32f0xx_flash.o(i.FLASH_OB_GetRDP) for FLASH_OB_GetRDP
    stm32f0xx_flash.o(i.FLASH_OB_Erase) refers to stm32f0xx_flash.o(i.FLASH_WaitForLastOperation) for FLASH_WaitForLastOperation
    stm32f0xx_flash.o(i.FLASH_OB_ProgramData) refers to stm32f0xx_flash.o(i.FLASH_WaitForLastOperation) for FLASH_WaitForLastOperation
    stm32f0xx_flash.o(i.FLASH_OB_RDPConfig) refers to stm32f0xx_flash.o(i.FLASH_WaitForLastOperation) for FLASH_WaitForLastOperation
    stm32f0xx_flash.o(i.FLASH_OB_SRAMParityConfig) refers to stm32f0xx_flash.o(i.FLASH_WaitForLastOperation) for FLASH_WaitForLastOperation
    stm32f0xx_flash.o(i.FLASH_OB_UserConfig) refers to stm32f0xx_flash.o(i.FLASH_WaitForLastOperation) for FLASH_WaitForLastOperation
    stm32f0xx_flash.o(i.FLASH_OB_VDDAConfig) refers to stm32f0xx_flash.o(i.FLASH_WaitForLastOperation) for FLASH_WaitForLastOperation
    stm32f0xx_flash.o(i.FLASH_OB_WriteUser) refers to stm32f0xx_flash.o(i.FLASH_WaitForLastOperation) for FLASH_WaitForLastOperation
    stm32f0xx_flash.o(i.FLASH_ProgramHalfWord) refers to stm32f0xx_flash.o(i.FLASH_WaitForLastOperation) for FLASH_WaitForLastOperation
    stm32f0xx_flash.o(i.FLASH_ProgramWord) refers to stm32f0xx_flash.o(i.FLASH_WaitForLastOperation) for FLASH_WaitForLastOperation
    stm32f0xx_flash.o(i.FLASH_WaitForLastOperation) refers to stm32f0xx_flash.o(i.FLASH_GetStatus) for FLASH_GetStatus
    stm32f0xx_gpio.o(i.GPIO_DeInit) refers to stm32f0xx_rcc.o(i.RCC_AHBPeriphResetCmd) for RCC_AHBPeriphResetCmd
    stm32f0xx_rcc.o(i.RCC_GetClocksFreq) refers to aeabi_sdiv.o(.text) for __aeabi_uidivmod
    stm32f0xx_rcc.o(i.RCC_GetClocksFreq) refers to stm32f0xx_rcc.o(.data) for .data
    stm32f0xx_rcc.o(i.RCC_WaitForHSEStartUp) refers to stm32f0xx_rcc.o(i.RCC_GetFlagStatus) for RCC_GetFlagStatus
    stm32f0xx_spi.o(i.I2S_Init) refers to stm32f0xx_rcc.o(i.RCC_GetClocksFreq) for RCC_GetClocksFreq
    stm32f0xx_spi.o(i.I2S_Init) refers to aeabi_sdiv.o(.text) for __aeabi_uidivmod
    stm32f0xx_spi.o(i.SPI_I2S_DeInit) refers to stm32f0xx_rcc.o(i.RCC_APB2PeriphResetCmd) for RCC_APB2PeriphResetCmd
    stm32f0xx_spi.o(i.SPI_I2S_DeInit) refers to stm32f0xx_rcc.o(i.RCC_APB1PeriphResetCmd) for RCC_APB1PeriphResetCmd
    stm32f0xx_tim.o(i.TIM_DeInit) refers to stm32f0xx_rcc.o(i.RCC_APB1PeriphResetCmd) for RCC_APB1PeriphResetCmd
    stm32f0xx_tim.o(i.TIM_DeInit) refers to stm32f0xx_rcc.o(i.RCC_APB2PeriphResetCmd) for RCC_APB2PeriphResetCmd
    stm32f0xx_tim.o(i.TIM_ETRClockMode1Config) refers to stm32f0xx_tim.o(i.TIM_ETRConfig) for TIM_ETRConfig
    stm32f0xx_tim.o(i.TIM_ETRClockMode2Config) refers to stm32f0xx_tim.o(i.TIM_ETRConfig) for TIM_ETRConfig
    stm32f0xx_tim.o(i.TIM_ICInit) refers to stm32f0xx_tim.o(i.TIM_SetIC4Prescaler) for TIM_SetIC4Prescaler
    stm32f0xx_tim.o(i.TIM_ICInit) refers to stm32f0xx_tim.o(i.TI1_Config) for TI1_Config
    stm32f0xx_tim.o(i.TIM_ICInit) refers to stm32f0xx_tim.o(i.TIM_SetIC1Prescaler) for TIM_SetIC1Prescaler
    stm32f0xx_tim.o(i.TIM_ICInit) refers to stm32f0xx_tim.o(i.TI2_Config) for TI2_Config
    stm32f0xx_tim.o(i.TIM_ICInit) refers to stm32f0xx_tim.o(i.TIM_SetIC2Prescaler) for TIM_SetIC2Prescaler
    stm32f0xx_tim.o(i.TIM_ICInit) refers to stm32f0xx_tim.o(i.TIM_SetIC3Prescaler) for TIM_SetIC3Prescaler
    stm32f0xx_tim.o(i.TIM_ITRxExternalClockConfig) refers to stm32f0xx_tim.o(i.TIM_SelectInputTrigger) for TIM_SelectInputTrigger
    stm32f0xx_tim.o(i.TIM_PWMIConfig) refers to stm32f0xx_tim.o(i.TI2_Config) for TI2_Config
    stm32f0xx_tim.o(i.TIM_PWMIConfig) refers to stm32f0xx_tim.o(i.TIM_SetIC2Prescaler) for TIM_SetIC2Prescaler
    stm32f0xx_tim.o(i.TIM_PWMIConfig) refers to stm32f0xx_tim.o(i.TI1_Config) for TI1_Config
    stm32f0xx_tim.o(i.TIM_PWMIConfig) refers to stm32f0xx_tim.o(i.TIM_SetIC1Prescaler) for TIM_SetIC1Prescaler
    stm32f0xx_tim.o(i.TIM_TIxExternalClockConfig) refers to stm32f0xx_tim.o(i.TI1_Config) for TI1_Config
    stm32f0xx_tim.o(i.TIM_TIxExternalClockConfig) refers to stm32f0xx_tim.o(i.TIM_SelectInputTrigger) for TIM_SelectInputTrigger
    stm32f0xx_tim.o(i.TIM_TIxExternalClockConfig) refers to stm32f0xx_tim.o(i.TI2_Config) for TI2_Config
    stm32f0xx_usart.o(i.USART_DeInit) refers to stm32f0xx_rcc.o(i.RCC_APB2PeriphResetCmd) for RCC_APB2PeriphResetCmd
    stm32f0xx_usart.o(i.USART_DeInit) refers to stm32f0xx_rcc.o(i.RCC_APB1PeriphResetCmd) for RCC_APB1PeriphResetCmd
    stm32f0xx_usart.o(i.USART_Init) refers to stm32f0xx_rcc.o(i.RCC_GetClocksFreq) for RCC_GetClocksFreq
    stm32f0xx_usart.o(i.USART_Init) refers to aeabi_sdiv.o(.text) for __aeabi_uidivmod
    llsdiv.o(.text) refers to lludiv.o(.text) for __aeabi_uldivmod
    rand.o(.emb_text) refers (Special) to libinit2.o(.ARM.Collect$$libinit$$0000000D) for __rt_lib_init_rand_2
    rand.o(.emb_text) refers to rand.o(.text) for _rand_init
    rand.o(.emb_text) refers to rand.o(.bss) for _random_number_data
    rand.o(.text) refers (Special) to libinit2.o(.ARM.Collect$$libinit$$0000000D) for __rt_lib_init_rand_2
    rand.o(.text) refers to rand.o(.bss) for .bss
    rand.o(.bss) refers (Special) to libinit2.o(.ARM.Collect$$libinit$$0000000D) for __rt_lib_init_rand_2
    rt_memcpy.o(.text) refers to rt_memcpy.o(.emb_text) for __aeabi_memcpy4
    __main.o(!!!main) refers to __rtentry.o(.ARM.Collect$$rtentry$$00000000) for __rt_entry
    d2f.o(.text) refers (Special) to usenofp.o(x$fpl$usenofp) for __I$use$fp
    daddsub.o(.text) refers (Special) to usenofp.o(x$fpl$usenofp) for __I$use$fp
    ddiv.o(.text) refers (Special) to usenofp.o(x$fpl$usenofp) for __I$use$fp
    ddiv.o(.text) refers to ddiv.o(.constdata) for .constdata
    ddiv.o(.constdata) refers (Special) to usenofp.o(x$fpl$usenofp) for __I$use$fp
    dflti.o(.text) refers (Special) to usenofp.o(x$fpl$usenofp) for __I$use$fp
    dmul.o(.text) refers (Special) to usenofp.o(x$fpl$usenofp) for __I$use$fp
    f2d.o(.text) refers (Special) to usenofp.o(x$fpl$usenofp) for __I$use$fp
    faddsub.o(x$fpl$fadd) refers (Special) to usenofp.o(x$fpl$usenofp) for __I$use$fp
    faddsub.o(x$fpl$fadd) refers to faddsub.o(x$fpl$fsub) for _fsub1
    faddsub.o(x$fpl$frsb) refers (Special) to usenofp.o(x$fpl$usenofp) for __I$use$fp
    faddsub.o(x$fpl$frsb) refers to faddsub.o(x$fpl$fsub) for _fsub1
    faddsub.o(x$fpl$frsb) refers to faddsub.o(x$fpl$fadd) for _fadd1
    faddsub.o(x$fpl$fsub) refers (Special) to usenofp.o(x$fpl$usenofp) for __I$use$fp
    faddsub.o(x$fpl$fsub) refers to faddsub.o(x$fpl$fadd) for _fadd1
    fdiv.o(.text) refers (Special) to usenofp.o(x$fpl$usenofp) for __I$use$fp
    fdiv.o(.text) refers to fdiv.o(.constdata) for .constdata
    fdiv.o(.constdata) refers (Special) to usenofp.o(x$fpl$usenofp) for __I$use$fp
    ffixi.o(.text) refers (Special) to usenofp.o(x$fpl$usenofp) for __I$use$fp
    ffixui.o(.text) refers (Special) to usenofp.o(x$fpl$usenofp) for __I$use$fp
    fflti.o(.text) refers (Special) to usenofp.o(x$fpl$usenofp) for __I$use$fp
    flef.o(x$fpl$fleqf) refers (Special) to usenofp.o(x$fpl$usenofp) for __I$use$fp
    flef.o(x$fpl$fleqf) refers to fcmpin.o(.text) for __fpl_fcmp_InfNaN
    fmul.o(x$fpl$fmul) refers (Special) to usenofp.o(x$fpl$usenofp) for __I$use$fp
    frlef.o(x$fpl$frleqf) refers (Special) to usenofp.o(x$fpl$usenofp) for __I$use$fp
    frlef.o(x$fpl$frleqf) refers to fcmpin.o(.text) for __fpl_fcmp_InfNaN
    fscalbn.o(.text) refers (Special) to usenofp.o(x$fpl$usenofp) for __I$use$fp
    asin.o(i.__softfp_asin) refers (Special) to usenofp.o(x$fpl$usenofp) for __I$use$fp
    asin.o(i.__softfp_asin) refers to asin.o(i.asin) for asin
    asin.o(i.asin) refers (Special) to usenofp.o(x$fpl$usenofp) for __I$use$fp
    asin.o(i.asin) refers to dunder.o(i.__mathlib_dbl_infnan) for __mathlib_dbl_infnan
    asin.o(i.asin) refers to dmul.o(.text) for __aeabi_dmul
    asin.o(i.asin) refers to _rserrno.o(.text) for __set_errno
    asin.o(i.asin) refers to dunder.o(i.__mathlib_dbl_invalid) for __mathlib_dbl_invalid
    asin.o(i.asin) refers to fpclassify.o(i.__ARM_fpclassify) for __ARM_fpclassify
    asin.o(i.asin) refers to dunder.o(i.__mathlib_dbl_underflow) for __mathlib_dbl_underflow
    asin.o(i.asin) refers to poly.o(i.__kernel_poly) for __kernel_poly
    asin.o(i.asin) refers to daddsub.o(.text) for __aeabi_dadd
    asin.o(i.asin) refers to ddiv.o(.text) for __aeabi_ddiv
    asin.o(i.asin) refers to dscalbn.o(.text) for __ARM_scalbn
    asin.o(i.asin) refers to sqrt.o(i.sqrt) for sqrt
    asin.o(i.asin) refers to asin.o(.constdata) for .constdata
    asin.o(.constdata) refers (Special) to usenofp.o(x$fpl$usenofp) for __I$use$fp
    asin_x.o(i.____softfp_asin$lsc) refers (Special) to usenofp.o(x$fpl$usenofp) for __I$use$fp
    asin_x.o(i.____softfp_asin$lsc) refers to asin_x.o(i.__asin$lsc) for __asin$lsc
    asin_x.o(i.__asin$lsc) refers (Special) to usenofp.o(x$fpl$usenofp) for __I$use$fp
    asin_x.o(i.__asin$lsc) refers to dunder.o(i.__mathlib_dbl_infnan) for __mathlib_dbl_infnan
    asin_x.o(i.__asin$lsc) refers to dmul.o(.text) for __aeabi_dmul
    asin_x.o(i.__asin$lsc) refers to _rserrno.o(.text) for __set_errno
    asin_x.o(i.__asin$lsc) refers to poly.o(i.__kernel_poly) for __kernel_poly
    asin_x.o(i.__asin$lsc) refers to daddsub.o(.text) for __aeabi_dadd
    asin_x.o(i.__asin$lsc) refers to ddiv.o(.text) for __aeabi_ddiv
    asin_x.o(i.__asin$lsc) refers to dscalbn.o(.text) for __ARM_scalbn
    asin_x.o(i.__asin$lsc) refers to sqrt.o(i.sqrt) for sqrt
    asin_x.o(i.__asin$lsc) refers to asin_x.o(.constdata) for .constdata
    asin_x.o(.constdata) refers (Special) to usenofp.o(x$fpl$usenofp) for __I$use$fp
    atan2.o(i.__softfp_atan2) refers (Special) to usenofp.o(x$fpl$usenofp) for __I$use$fp
    atan2.o(i.__softfp_atan2) refers to atan2.o(i.atan2) for atan2
    atan2.o(i.atan2) refers (Special) to usenofp.o(x$fpl$usenofp) for __I$use$fp
    atan2.o(i.atan2) refers to dunder.o(i.__mathlib_dbl_infnan2) for __mathlib_dbl_infnan2
    atan2.o(i.atan2) refers to atan.o(i.atan) for atan
    atan2.o(i.atan2) refers to ddiv.o(.text) for __aeabi_ddiv
    atan2.o(i.atan2) refers to daddsub.o(.text) for __aeabi_dsub
    atan2.o(i.atan2) refers to qnan.o(.constdata) for __mathlib_zero
    atan2_x.o(i.____softfp_atan2$lsc) refers (Special) to usenofp.o(x$fpl$usenofp) for __I$use$fp
    atan2_x.o(i.____softfp_atan2$lsc) refers to atan2_x.o(i.__atan2$lsc) for __atan2$lsc
    atan2_x.o(i.__atan2$lsc) refers (Special) to usenofp.o(x$fpl$usenofp) for __I$use$fp
    atan2_x.o(i.__atan2$lsc) refers to dunder.o(i.__mathlib_dbl_infnan2) for __mathlib_dbl_infnan2
    atan2_x.o(i.__atan2$lsc) refers to atan.o(i.atan) for atan
    atan2_x.o(i.__atan2$lsc) refers to _rserrno.o(.text) for __set_errno
    atan2_x.o(i.__atan2$lsc) refers to ddiv.o(.text) for __aeabi_ddiv
    atan2_x.o(i.__atan2$lsc) refers to daddsub.o(.text) for __aeabi_dsub
    atan2_x.o(i.__atan2$lsc) refers to qnan.o(.constdata) for __mathlib_zero
    cosf.o(i.__softfp_cosf) refers (Special) to usenofp.o(x$fpl$usenofp) for __I$use$fp
    cosf.o(i.__softfp_cosf) refers to cosf.o(i.cosf) for cosf
    cosf.o(i.cosf) refers (Special) to usenofp.o(x$fpl$usenofp) for __I$use$fp
    cosf.o(i.cosf) refers to fmul.o(x$fpl$fmul) for __aeabi_fmul
    cosf.o(i.cosf) refers to frnd.o(.text) for _frnd
    cosf.o(i.cosf) refers to ffixi.o(.text) for __aeabi_f2iz
    cosf.o(i.cosf) refers to faddsub.o(x$fpl$frsb) for __aeabi_frsub
    cosf.o(i.cosf) refers to faddsub.o(x$fpl$fsub) for __aeabi_fsub
    cosf.o(i.cosf) refers to faddsub.o(x$fpl$fadd) for __aeabi_fadd
    cosf.o(i.cosf) refers to rredf.o(i.__mathlib_rredf2) for __mathlib_rredf2
    cosf.o(i.cosf) refers to _rserrno.o(.text) for __set_errno
    cosf.o(i.cosf) refers to funder.o(i.__mathlib_flt_invalid) for __mathlib_flt_invalid
    cosf.o(i.cosf) refers to funder.o(i.__mathlib_flt_infnan) for __mathlib_flt_infnan
    cosf_x.o(i.____softfp_cosf$lsc) refers (Special) to usenofp.o(x$fpl$usenofp) for __I$use$fp
    cosf_x.o(i.____softfp_cosf$lsc) refers to cosf_x.o(i.__cosf$lsc) for __cosf$lsc
    cosf_x.o(i.__cosf$lsc) refers (Special) to usenofp.o(x$fpl$usenofp) for __I$use$fp
    cosf_x.o(i.__cosf$lsc) refers to fmul.o(x$fpl$fmul) for __aeabi_fmul
    cosf_x.o(i.__cosf$lsc) refers to frnd.o(.text) for _frnd
    cosf_x.o(i.__cosf$lsc) refers to ffixi.o(.text) for __aeabi_f2iz
    cosf_x.o(i.__cosf$lsc) refers to faddsub.o(x$fpl$frsb) for __aeabi_frsub
    cosf_x.o(i.__cosf$lsc) refers to faddsub.o(x$fpl$fsub) for __aeabi_fsub
    cosf_x.o(i.__cosf$lsc) refers to faddsub.o(x$fpl$fadd) for __aeabi_fadd
    cosf_x.o(i.__cosf$lsc) refers to rredf.o(i.__mathlib_rredf2) for __mathlib_rredf2
    cosf_x.o(i.__cosf$lsc) refers to _rserrno.o(.text) for __set_errno
    cosf_x.o(i.__cosf$lsc) refers to funder.o(i.__mathlib_flt_infnan) for __mathlib_flt_infnan
    pow.o(i.__softfp_pow) refers (Special) to usenofp.o(x$fpl$usenofp) for __I$use$fp
    pow.o(i.__softfp_pow) refers to pow.o(i.pow) for pow
    pow.o(i.pow) refers (Special) to usenofp.o(x$fpl$usenofp) for __I$use$fp
    pow.o(i.pow) refers to dunder.o(i.__mathlib_dbl_infnan2) for __mathlib_dbl_infnan2
    pow.o(i.pow) refers to _rserrno.o(.text) for __set_errno
    pow.o(i.pow) refers to dunder.o(i.__mathlib_dbl_divzero) for __mathlib_dbl_divzero
    pow.o(i.pow) refers to ddiv.o(.text) for __aeabi_ddiv
    pow.o(i.pow) refers to sqrt.o(i.sqrt) for sqrt
    pow.o(i.pow) refers to dflti.o(.text) for __aeabi_i2d
    pow.o(i.pow) refers to dunder.o(i.__mathlib_dbl_invalid) for __mathlib_dbl_invalid
    pow.o(i.pow) refers to dunder.o(i.__mathlib_dbl_overflow) for __mathlib_dbl_overflow
    pow.o(i.pow) refers to dmul.o(.text) for __aeabi_dmul
    pow.o(i.pow) refers to dunder.o(i.__mathlib_dbl_underflow) for __mathlib_dbl_underflow
    pow.o(i.pow) refers to daddsub.o(.text) for __aeabi_dsub
    pow.o(i.pow) refers to dscalbn.o(.text) for __ARM_scalbn
    pow.o(i.pow) refers to qnan.o(.constdata) for __mathlib_zero
    pow.o(i.pow) refers to poly.o(i.__kernel_poly) for __kernel_poly
    pow.o(i.pow) refers to drlef.o(x$fpl$drleqf) for __aeabi_cdrcmple
    pow.o(i.pow) refers to pow.o(.constdata) for .constdata
    pow.o(i.pow) refers to fpclassify.o(i.__ARM_fpclassify) for __ARM_fpclassify
    pow.o(.constdata) refers (Special) to usenofp.o(x$fpl$usenofp) for __I$use$fp
    pow_x.o(i.____softfp_pow$lsc) refers (Special) to usenofp.o(x$fpl$usenofp) for __I$use$fp
    pow_x.o(i.____softfp_pow$lsc) refers to pow_x.o(i.__pow$lsc) for __pow$lsc
    pow_x.o(i.__pow$lsc) refers (Special) to usenofp.o(x$fpl$usenofp) for __I$use$fp
    pow_x.o(i.__pow$lsc) refers to dunder.o(i.__mathlib_dbl_infnan2) for __mathlib_dbl_infnan2
    pow_x.o(i.__pow$lsc) refers to _rserrno.o(.text) for __set_errno
    pow_x.o(i.__pow$lsc) refers to ddiv.o(.text) for __aeabi_ddiv
    pow_x.o(i.__pow$lsc) refers to sqrt.o(i.sqrt) for sqrt
    pow_x.o(i.__pow$lsc) refers to dflti.o(.text) for __aeabi_i2d
    pow_x.o(i.__pow$lsc) refers to dmul.o(.text) for __aeabi_dmul
    pow_x.o(i.__pow$lsc) refers to daddsub.o(.text) for __aeabi_dsub
    pow_x.o(i.__pow$lsc) refers to dscalbn.o(.text) for __ARM_scalbn
    pow_x.o(i.__pow$lsc) refers to qnan.o(.constdata) for __mathlib_zero
    pow_x.o(i.__pow$lsc) refers to poly.o(i.__kernel_poly) for __kernel_poly
    pow_x.o(i.__pow$lsc) refers to drlef.o(x$fpl$drleqf) for __aeabi_cdrcmple
    pow_x.o(i.__pow$lsc) refers to pow_x.o(.constdata) for .constdata
    pow_x.o(.constdata) refers (Special) to usenofp.o(x$fpl$usenofp) for __I$use$fp
    sinf.o(i.__softfp_sinf) refers (Special) to usenofp.o(x$fpl$usenofp) for __I$use$fp
    sinf.o(i.__softfp_sinf) refers to sinf.o(i.sinf) for sinf
    sinf.o(i.sinf) refers (Special) to usenofp.o(x$fpl$usenofp) for __I$use$fp
    sinf.o(i.sinf) refers to fmul.o(x$fpl$fmul) for __aeabi_fmul
    sinf.o(i.sinf) refers to frnd.o(.text) for _frnd
    sinf.o(i.sinf) refers to ffixi.o(.text) for __aeabi_f2iz
    sinf.o(i.sinf) refers to faddsub.o(x$fpl$frsb) for __aeabi_frsub
    sinf.o(i.sinf) refers to faddsub.o(x$fpl$fsub) for __aeabi_fsub
    sinf.o(i.sinf) refers to faddsub.o(x$fpl$fadd) for __aeabi_fadd
    sinf.o(i.sinf) refers to rredf.o(i.__mathlib_rredf2) for __mathlib_rredf2
    sinf.o(i.sinf) refers to fpclassifyf.o(i.__ARM_fpclassifyf) for __ARM_fpclassifyf
    sinf.o(i.sinf) refers to funder.o(i.__mathlib_flt_underflow) for __mathlib_flt_underflow
    sinf.o(i.sinf) refers to _rserrno.o(.text) for __set_errno
    sinf.o(i.sinf) refers to funder.o(i.__mathlib_flt_invalid) for __mathlib_flt_invalid
    sinf.o(i.sinf) refers to funder.o(i.__mathlib_flt_infnan) for __mathlib_flt_infnan
    sinf_x.o(i.____softfp_sinf$lsc) refers (Special) to usenofp.o(x$fpl$usenofp) for __I$use$fp
    sinf_x.o(i.____softfp_sinf$lsc) refers to sinf_x.o(i.__sinf$lsc) for __sinf$lsc
    sinf_x.o(i.__sinf$lsc) refers (Special) to usenofp.o(x$fpl$usenofp) for __I$use$fp
    sinf_x.o(i.__sinf$lsc) refers to fmul.o(x$fpl$fmul) for __aeabi_fmul
    sinf_x.o(i.__sinf$lsc) refers to frnd.o(.text) for _frnd
    sinf_x.o(i.__sinf$lsc) refers to ffixi.o(.text) for __aeabi_f2iz
    sinf_x.o(i.__sinf$lsc) refers to faddsub.o(x$fpl$frsb) for __aeabi_frsub
    sinf_x.o(i.__sinf$lsc) refers to faddsub.o(x$fpl$fsub) for __aeabi_fsub
    sinf_x.o(i.__sinf$lsc) refers to faddsub.o(x$fpl$fadd) for __aeabi_fadd
    sinf_x.o(i.__sinf$lsc) refers to rredf.o(i.__mathlib_rredf2) for __mathlib_rredf2
    sinf_x.o(i.__sinf$lsc) refers to _rserrno.o(.text) for __set_errno
    sinf_x.o(i.__sinf$lsc) refers to funder.o(i.__mathlib_flt_infnan) for __mathlib_flt_infnan
    __rtentry.o(.ARM.Collect$$rtentry$$00000000) refers (Special) to __rtentry2.o(.ARM.Collect$$rtentry$$0000000A) for __rt_entry_li
    __rtentry.o(.ARM.Collect$$rtentry$$00000000) refers (Special) to __rtentry2.o(.ARM.Collect$$rtentry$$0000000D) for __rt_entry_main
    __rtentry.o(.ARM.Collect$$rtentry$$00000000) refers (Special) to __rtentry2.o(.ARM.Collect$$rtentry$$0000000C) for __rt_entry_postli_1
    __rtentry.o(.ARM.Collect$$rtentry$$00000000) refers (Special) to __rtentry2.o(.ARM.Collect$$rtentry$$00000009) for __rt_entry_postsh_1
    __rtentry.o(.ARM.Collect$$rtentry$$00000000) refers (Special) to __rtentry2.o(.ARM.Collect$$rtentry$$00000002) for __rt_entry_presh_1
    __rtentry.o(.ARM.Collect$$rtentry$$00000000) refers (Special) to __rtentry4.o(.ARM.Collect$$rtentry$$00000004) for __rt_entry_sh
    aeabi_idiv0_sigfpe.o(.text) refers to rt_div0.o(.text) for __rt_div0
    _rserrno.o(.text) refers to rt_errno_addr_intlibspace.o(.text) for __aeabi_errno_addr
    libinit2.o(.ARM.Collect$$libinit$$0000000D) refers (Weak) to rand.o(.text) for _rand_init
    libinit2.o(.ARM.Collect$$libinit$$00000010) refers to libinit2.o(.ARM.Collect$$libinit$$0000000F) for .ARM.Collect$$libinit$$0000000F
    libinit2.o(.ARM.Collect$$libinit$$00000012) refers to libinit2.o(.ARM.Collect$$libinit$$0000000F) for .ARM.Collect$$libinit$$0000000F
    libinit2.o(.ARM.Collect$$libinit$$00000014) refers to libinit2.o(.ARM.Collect$$libinit$$0000000F) for .ARM.Collect$$libinit$$0000000F
    libinit2.o(.ARM.Collect$$libinit$$00000016) refers to libinit2.o(.ARM.Collect$$libinit$$0000000F) for .ARM.Collect$$libinit$$0000000F
    libinit2.o(.ARM.Collect$$libinit$$00000018) refers to libinit2.o(.ARM.Collect$$libinit$$0000000F) for .ARM.Collect$$libinit$$0000000F
    libinit2.o(.ARM.Collect$$libinit$$00000026) refers to argv_veneer.o(.text) for __ARM_argv_veneer
    libinit2.o(.ARM.Collect$$libinit$$00000027) refers to argv_veneer.o(.text) for __ARM_argv_veneer
    drlef.o(x$fpl$drleqf) refers (Special) to usenofp.o(x$fpl$usenofp) for __I$use$fp
    drlef.o(x$fpl$drleqf) refers to dcmpin.o(.text) for __fpl_dcmp_InfNaN
    dscalbn.o(.text) refers (Special) to usenofp.o(x$fpl$usenofp) for __I$use$fp
    fcmpin.o(.text) refers (Special) to usenofp.o(x$fpl$usenofp) for __I$use$fp
    fcmpin.o(.text) refers to cmpret.o(.text) for __fpl_cmpreturn
    fcmpin.o(.text) refers to fnan2.o(.text) for __fpl_fcheck_NaN2
    frnd.o(.text) refers (Special) to usenofp.o(x$fpl$usenofp) for __I$use$fp
    atan.o(i.__softfp_atan) refers (Special) to usenofp.o(x$fpl$usenofp) for __I$use$fp
    atan.o(i.__softfp_atan) refers to atan.o(i.atan) for atan
    atan.o(i.atan) refers (Special) to usenofp.o(x$fpl$usenofp) for __I$use$fp
    atan.o(i.atan) refers to dunder.o(i.__mathlib_dbl_infnan) for __mathlib_dbl_infnan
    atan.o(i.atan) refers to fpclassify.o(i.__ARM_fpclassify) for __ARM_fpclassify
    atan.o(i.atan) refers to dunder.o(i.__mathlib_dbl_underflow) for __mathlib_dbl_underflow
    atan.o(i.atan) refers to daddsub.o(.text) for __aeabi_dadd
    atan.o(i.atan) refers to dscalbn.o(.text) for __ARM_scalbn
    atan.o(i.atan) refers to ddiv.o(.text) for __aeabi_ddiv
    atan.o(i.atan) refers to dmul.o(.text) for __aeabi_dmul
    atan.o(i.atan) refers to poly.o(i.__kernel_poly) for __kernel_poly
    atan.o(i.atan) refers to atan.o(.constdata) for .constdata
    atan.o(.constdata) refers (Special) to usenofp.o(x$fpl$usenofp) for __I$use$fp
    atan_x.o(i.____softfp_atan$lsc) refers (Special) to usenofp.o(x$fpl$usenofp) for __I$use$fp
    atan_x.o(i.____softfp_atan$lsc) refers to atan_x.o(i.__atan$lsc) for __atan$lsc
    atan_x.o(i.__atan$lsc) refers (Special) to usenofp.o(x$fpl$usenofp) for __I$use$fp
    atan_x.o(i.__atan$lsc) refers to dunder.o(i.__mathlib_dbl_infnan) for __mathlib_dbl_infnan
    atan_x.o(i.__atan$lsc) refers to daddsub.o(.text) for __aeabi_dadd
    atan_x.o(i.__atan$lsc) refers to dscalbn.o(.text) for __ARM_scalbn
    atan_x.o(i.__atan$lsc) refers to ddiv.o(.text) for __aeabi_ddiv
    atan_x.o(i.__atan$lsc) refers to dmul.o(.text) for __aeabi_dmul
    atan_x.o(i.__atan$lsc) refers to poly.o(i.__kernel_poly) for __kernel_poly
    atan_x.o(i.__atan$lsc) refers to atan_x.o(.constdata) for .constdata
    atan_x.o(.constdata) refers (Special) to usenofp.o(x$fpl$usenofp) for __I$use$fp
    dunder.o(i.__mathlib_dbl_divzero) refers to ddiv.o(.text) for __aeabi_ddiv
    dunder.o(i.__mathlib_dbl_infnan) refers to dscalbn.o(.text) for __ARM_scalbn
    dunder.o(i.__mathlib_dbl_infnan2) refers to daddsub.o(.text) for __aeabi_dadd
    dunder.o(i.__mathlib_dbl_invalid) refers to ddiv.o(.text) for __aeabi_ddiv
    dunder.o(i.__mathlib_dbl_overflow) refers to dscalbn.o(.text) for __ARM_scalbn
    dunder.o(i.__mathlib_dbl_posinfnan) refers to dmul.o(.text) for __aeabi_dmul
    dunder.o(i.__mathlib_dbl_underflow) refers to dscalbn.o(.text) for __ARM_scalbn
    fpclassify.o(i.__ARM_fpclassify) refers (Special) to usenofp.o(x$fpl$usenofp) for __I$use$fp
    fpclassifyf.o(i.__ARM_fpclassifyf) refers (Special) to usenofp.o(x$fpl$usenofp) for __I$use$fp
    funder.o(i.__mathlib_flt_divzero) refers to fdiv.o(.text) for __aeabi_fdiv
    funder.o(i.__mathlib_flt_infnan) refers to fscalbn.o(.text) for __ARM_scalbnf
    funder.o(i.__mathlib_flt_infnan2) refers to faddsub.o(x$fpl$fadd) for __aeabi_fadd
    funder.o(i.__mathlib_flt_invalid) refers to fdiv.o(.text) for __aeabi_fdiv
    funder.o(i.__mathlib_flt_overflow) refers to fscalbn.o(.text) for __ARM_scalbnf
    funder.o(i.__mathlib_flt_posinfnan) refers to fmul.o(x$fpl$fmul) for __aeabi_fmul
    funder.o(i.__mathlib_flt_underflow) refers to fscalbn.o(.text) for __ARM_scalbnf
    poly.o(i.__kernel_poly) refers (Special) to usenofp.o(x$fpl$usenofp) for __I$use$fp
    poly.o(i.__kernel_poly) refers to dmul.o(.text) for __aeabi_dmul
    poly.o(i.__kernel_poly) refers to daddsub.o(.text) for __aeabi_dadd
    qnan.o(.constdata) refers (Special) to usenofp.o(x$fpl$usenofp) for __I$use$fp
    rredf.o(i.__mathlib_rredf2) refers (Special) to usenofp.o(x$fpl$usenofp) for __I$use$fp
    rredf.o(i.__mathlib_rredf2) refers to rredf.o(i.__ARM_common_ll_muluu) for __ARM_common_ll_muluu
    rredf.o(i.__mathlib_rredf2) refers to fflti.o(.text) for __aeabi_i2f
    rredf.o(i.__mathlib_rredf2) refers to fscalbn.o(.text) for __ARM_scalbnf
    rredf.o(i.__mathlib_rredf2) refers to faddsub.o(x$fpl$fadd) for __aeabi_fadd
    rredf.o(i.__mathlib_rredf2) refers to faddsub.o(x$fpl$fsub) for __aeabi_fsub
    rredf.o(i.__mathlib_rredf2) refers to faddsub.o(x$fpl$frsb) for __aeabi_frsub
    rredf.o(i.__mathlib_rredf2) refers to fmul.o(x$fpl$fmul) for __aeabi_fmul
    rredf.o(i.__mathlib_rredf2) refers to rredf.o(.constdata) for .constdata
    rredf.o(.constdata) refers (Special) to usenofp.o(x$fpl$usenofp) for __I$use$fp
    sqrt.o(i.__softfp_sqrt) refers (Special) to usenofp.o(x$fpl$usenofp) for __I$use$fp
    sqrt.o(i.__softfp_sqrt) refers to dsqrt.o(.text) for _dsqrt
    sqrt.o(i.__softfp_sqrt) refers to _rserrno.o(.text) for __set_errno
    sqrt.o(i.sqrt) refers (Special) to usenofp.o(x$fpl$usenofp) for __I$use$fp
    sqrt.o(i.sqrt) refers to dsqrt.o(.text) for _dsqrt
    sqrt.o(i.sqrt) refers to _rserrno.o(.text) for __set_errno
    sqrt_x.o(i.____softfp_sqrt$lsc) refers (Special) to usenofp.o(x$fpl$usenofp) for __I$use$fp
    sqrt_x.o(i.____softfp_sqrt$lsc) refers to dlef.o(x$fpl$dleqf) for __aeabi_cdcmple
    sqrt_x.o(i.____softfp_sqrt$lsc) refers to _rserrno.o(.text) for __set_errno
    sqrt_x.o(i.____softfp_sqrt$lsc) refers to dsqrt.o(.text) for _dsqrt
    sqrt_x.o(i.__sqrt$lsc) refers (Special) to usenofp.o(x$fpl$usenofp) for __I$use$fp
    sqrt_x.o(i.__sqrt$lsc) refers to dlef.o(x$fpl$dleqf) for __aeabi_cdcmple
    sqrt_x.o(i.__sqrt$lsc) refers to _rserrno.o(.text) for __set_errno
    sqrt_x.o(i.__sqrt$lsc) refers to dsqrt.o(.text) for _dsqrt
    __rtentry2.o(.ARM.Collect$$rtentry$$00000008) refers to boardinit2.o(.text) for _platform_post_stackheap_init
    __rtentry2.o(.ARM.Collect$$rtentry$$0000000A) refers to libinit.o(.ARM.Collect$$libinit$$00000000) for __rt_lib_init
    __rtentry2.o(.ARM.Collect$$rtentry$$0000000B) refers to boardinit3.o(.text) for _platform_post_lib_init
    __rtentry2.o(.ARM.Collect$$rtentry$$0000000D) refers to main.o(i.main) for main
    __rtentry2.o(.ARM.Collect$$rtentry$$0000000D) refers to exit.o(.text) for exit
    __rtentry2.o(.ARM.exidx) refers to __rtentry2.o(.ARM.Collect$$rtentry$$00000001) for .ARM.Collect$$rtentry$$00000001
    __rtentry2.o(.ARM.exidx) refers to __rtentry2.o(.ARM.Collect$$rtentry$$00000008) for .ARM.Collect$$rtentry$$00000008
    __rtentry2.o(.ARM.exidx) refers to __rtentry2.o(.ARM.Collect$$rtentry$$0000000A) for .ARM.Collect$$rtentry$$0000000A
    __rtentry2.o(.ARM.exidx) refers to __rtentry2.o(.ARM.Collect$$rtentry$$0000000B) for .ARM.Collect$$rtentry$$0000000B
    __rtentry2.o(.ARM.exidx) refers to __rtentry2.o(.ARM.Collect$$rtentry$$0000000D) for .ARM.Collect$$rtentry$$0000000D
    __rtentry4.o(.ARM.Collect$$rtentry$$00000004) refers to sys_stackheap_outer.o(.text) for __user_setup_stackheap
    __rtentry4.o(.ARM.exidx) refers to __rtentry4.o(.ARM.Collect$$rtentry$$00000004) for .ARM.Collect$$rtentry$$00000004
    rt_div0.o(.text) refers to defsig_fpe_outer.o(.text) for __rt_SIGFPE
    aeabi_ldiv0_sigfpe.o(.text) refers to rt_div0.o(.text) for __rt_div0
    rt_errno_addr.o(.text) refers to rt_errno_addr.o(.bss) for __aeabi_errno_addr_data
    rt_errno_addr_intlibspace.o(.text) refers to libspace.o(.bss) for __libspace_start
    cmpret.o(.text) refers (Special) to usenofp.o(x$fpl$usenofp) for __I$use$fp
    dcmpin.o(.text) refers (Special) to usenofp.o(x$fpl$usenofp) for __I$use$fp
    dcmpin.o(.text) refers to cmpret.o(.text) for __fpl_cmpreturn
    dcmpin.o(.text) refers to dnan2.o(.text) for __fpl_dcheck_NaN2
    dlef.o(x$fpl$dleqf) refers (Special) to usenofp.o(x$fpl$usenofp) for __I$use$fp
    dlef.o(x$fpl$dleqf) refers to dcmpin.o(.text) for __fpl_dcmp_InfNaN
    dsqrt.o(.text) refers (Special) to usenofp.o(x$fpl$usenofp) for __I$use$fp
    fnan2.o(.text) refers (Special) to usenofp.o(x$fpl$usenofp) for __I$use$fp
    fnan2.o(.text) refers to retnan.o(.text) for __fpl_return_NaN
    libspace.o(.text) refers to libspace.o(.bss) for __libspace_start
    sys_stackheap_outer.o(.text) refers to libspace.o(.text) for __user_perproc_libspace
    sys_stackheap_outer.o(.text) refers to startup_stm32f072.o(.text) for __user_initial_stackheap
    sys_stackheap_outer.o(__vectab_stack_and_reset_area) refers to tempstk.o(.text) for __temporary_stack_top
    sys_stackheap_outer.o(__vectab_stack_and_reset_area) refers to __main.o(!!!main) for __main
    exit.o(.text) refers to rtexit.o(.ARM.Collect$$rtexit$$00000000) for __rt_exit
    defsig_fpe_outer.o(.text) refers to defsig_fpe_inner.o(.text) for __rt_SIGFPE_inner
    defsig_fpe_outer.o(.text) refers to defsig_exit.o(.text) for __sig_exit
    defsig_fpe_formal.o(.text) refers to rt_raise.o(.text) for __rt_raise
    _get_argv_nomalloc.o(.text) refers (Special) to hrguard.o(.text) for __heap_region$guard
    _get_argv_nomalloc.o(.text) refers to defsig_rtmem_outer.o(.text) for __rt_SIGRTMEM
    _get_argv_nomalloc.o(.text) refers to sys_command.o(.text) for _sys_command_string
    libinit.o(.ARM.Collect$$libinit$$00000000) refers (Special) to libinit2.o(.ARM.Collect$$libinit$$0000002E) for __rt_lib_init_alloca_1
    libinit.o(.ARM.Collect$$libinit$$00000000) refers (Special) to libinit2.o(.ARM.Collect$$libinit$$0000002C) for __rt_lib_init_argv_1
    libinit.o(.ARM.Collect$$libinit$$00000000) refers (Special) to libinit2.o(.ARM.Collect$$libinit$$0000001B) for __rt_lib_init_atexit_1
    libinit.o(.ARM.Collect$$libinit$$00000000) refers (Special) to libinit2.o(.ARM.Collect$$libinit$$00000021) for __rt_lib_init_clock_1
    libinit.o(.ARM.Collect$$libinit$$00000000) refers (Special) to libinit2.o(.ARM.Collect$$libinit$$00000032) for __rt_lib_init_cpp_1
    libinit.o(.ARM.Collect$$libinit$$00000000) refers (Special) to libinit2.o(.ARM.Collect$$libinit$$00000030) for __rt_lib_init_exceptions_1
    libinit.o(.ARM.Collect$$libinit$$00000000) refers (Special) to libinit2.o(.ARM.Collect$$libinit$$00000002) for __rt_lib_init_fp_1
    libinit.o(.ARM.Collect$$libinit$$00000000) refers (Special) to libinit2.o(.ARM.Collect$$libinit$$0000001F) for __rt_lib_init_fp_trap_1
    libinit.o(.ARM.Collect$$libinit$$00000000) refers (Special) to libinit2.o(.ARM.Collect$$libinit$$00000023) for __rt_lib_init_getenv_1
    libinit.o(.ARM.Collect$$libinit$$00000000) refers (Special) to libinit2.o(.ARM.Collect$$libinit$$0000000A) for __rt_lib_init_heap_1
    libinit.o(.ARM.Collect$$libinit$$00000000) refers (Special) to libinit2.o(.ARM.Collect$$libinit$$00000011) for __rt_lib_init_lc_collate_1
    libinit.o(.ARM.Collect$$libinit$$00000000) refers (Special) to libinit2.o(.ARM.Collect$$libinit$$00000013) for __rt_lib_init_lc_ctype_1
    libinit.o(.ARM.Collect$$libinit$$00000000) refers (Special) to libinit2.o(.ARM.Collect$$libinit$$00000015) for __rt_lib_init_lc_monetary_1
    libinit.o(.ARM.Collect$$libinit$$00000000) refers (Special) to libinit2.o(.ARM.Collect$$libinit$$00000017) for __rt_lib_init_lc_numeric_1
    libinit.o(.ARM.Collect$$libinit$$00000000) refers (Special) to libinit2.o(.ARM.Collect$$libinit$$00000019) for __rt_lib_init_lc_time_1
    libinit.o(.ARM.Collect$$libinit$$00000000) refers (Special) to libinit2.o(.ARM.Collect$$libinit$$00000004) for __rt_lib_init_preinit_1
    libinit.o(.ARM.Collect$$libinit$$00000000) refers (Special) to libinit2.o(.ARM.Collect$$libinit$$0000000E) for __rt_lib_init_rand_1
    libinit.o(.ARM.Collect$$libinit$$00000000) refers (Special) to libinit2.o(.ARM.Collect$$libinit$$00000033) for __rt_lib_init_return
    libinit.o(.ARM.Collect$$libinit$$00000000) refers (Special) to libinit2.o(.ARM.Collect$$libinit$$0000001D) for __rt_lib_init_signal_1
    libinit.o(.ARM.Collect$$libinit$$00000000) refers (Special) to libinit2.o(.ARM.Collect$$libinit$$00000025) for __rt_lib_init_stdio_1
    libinit.o(.ARM.Collect$$libinit$$00000000) refers (Special) to libinit2.o(.ARM.Collect$$libinit$$0000000C) for __rt_lib_init_user_alloc_1
    dnan2.o(.text) refers (Special) to usenofp.o(x$fpl$usenofp) for __I$use$fp
    dnan2.o(.text) refers to retnan.o(.text) for __fpl_return_NaN
    retnan.o(.text) refers (Special) to usenofp.o(x$fpl$usenofp) for __I$use$fp
    retnan.o(.text) refers to cmpret.o(.text) for __fpl_cmpreturn
    sys_command.o(.text) refers (Special) to use_no_semi.o(.text) for __I$use$semihosting
    sys_command.o(.text) refers (Special) to indicate_semi.o(.text) for __semihosting_library_function
    rtexit.o(.ARM.Collect$$rtexit$$00000000) refers (Special) to rtexit2.o(.ARM.Collect$$rtexit$$00000004) for __rt_exit_exit
    rtexit.o(.ARM.Collect$$rtexit$$00000000) refers (Special) to rtexit2.o(.ARM.Collect$$rtexit$$00000003) for __rt_exit_ls
    rtexit.o(.ARM.Collect$$rtexit$$00000000) refers (Special) to rtexit2.o(.ARM.Collect$$rtexit$$00000002) for __rt_exit_prels_1
    rtexit.o(.ARM.exidx) refers (Special) to rtexit2.o(.ARM.Collect$$rtexit$$00000004) for __rt_exit_exit
    rtexit.o(.ARM.exidx) refers (Special) to rtexit2.o(.ARM.Collect$$rtexit$$00000003) for __rt_exit_ls
    rtexit.o(.ARM.exidx) refers (Special) to rtexit2.o(.ARM.Collect$$rtexit$$00000002) for __rt_exit_prels_1
    rtexit.o(.ARM.exidx) refers to rtexit.o(.ARM.Collect$$rtexit$$00000000) for .ARM.Collect$$rtexit$$00000000
    rt_raise.o(.text) refers to __raise.o(.text) for __raise
    rt_raise.o(.text) refers to sys_exit.o(.text) for _sys_exit
    defsig_exit.o(.text) refers to sys_exit.o(.text) for _sys_exit
    defsig_fpe_inner.o(.text) refers to defsig_general.o(.text) for __default_signal_display
    defsig_rtmem_outer.o(.text) refers to defsig_rtmem_inner.o(.text) for __rt_SIGRTMEM_inner
    defsig_rtmem_outer.o(.text) refers to defsig_exit.o(.text) for __sig_exit
    defsig_rtmem_formal.o(.text) refers to rt_raise.o(.text) for __rt_raise
    sys_exit.o(.text) refers (Special) to use_no_semi.o(.text) for __I$use$semihosting
    sys_exit.o(.text) refers (Special) to indicate_semi.o(.text) for __semihosting_library_function
    rtexit2.o(.ARM.Collect$$rtexit$$00000003) refers to libshutdown.o(.ARM.Collect$$libshutdown$$00000000) for __rt_lib_shutdown
    rtexit2.o(.ARM.Collect$$rtexit$$00000004) refers to sys_exit.o(.text) for _sys_exit
    rtexit2.o(.ARM.exidx) refers to rtexit2.o(.ARM.Collect$$rtexit$$00000001) for .ARM.Collect$$rtexit$$00000001
    rtexit2.o(.ARM.exidx) refers to rtexit2.o(.ARM.Collect$$rtexit$$00000003) for .ARM.Collect$$rtexit$$00000003
    rtexit2.o(.ARM.exidx) refers to rtexit2.o(.ARM.Collect$$rtexit$$00000004) for .ARM.Collect$$rtexit$$00000004
    __raise.o(.text) refers to defsig.o(CL$$defsig) for __default_signal_handler
    defsig_general.o(.text) refers to sys_wrch.o(.text) for _ttywrch
    defsig_rtmem_inner.o(.text) refers to defsig_general.o(.text) for __default_signal_display
    sys_wrch.o(.text) refers (Special) to use_no_semi.o(.text) for __I$use$semihosting
    sys_wrch.o(.text) refers (Special) to indicate_semi.o(.text) for __semihosting_library_function
    defsig.o(CL$$defsig) refers to defsig_fpe_inner.o(.text) for __rt_SIGFPE_inner
    defsig.o(CL$$defsig) refers to defsig_rtmem_inner.o(.text) for __rt_SIGRTMEM_inner
    libshutdown.o(.ARM.Collect$$libshutdown$$00000000) refers (Special) to libshutdown2.o(.ARM.Collect$$libshutdown$$00000002) for __rt_lib_shutdown_cpp_1
    libshutdown.o(.ARM.Collect$$libshutdown$$00000000) refers (Special) to libshutdown2.o(.ARM.Collect$$libshutdown$$00000007) for __rt_lib_shutdown_fp_trap_1
    libshutdown.o(.ARM.Collect$$libshutdown$$00000000) refers (Special) to libshutdown2.o(.ARM.Collect$$libshutdown$$0000000F) for __rt_lib_shutdown_heap_1
    libshutdown.o(.ARM.Collect$$libshutdown$$00000000) refers (Special) to libshutdown2.o(.ARM.Collect$$libshutdown$$00000010) for __rt_lib_shutdown_return
    libshutdown.o(.ARM.Collect$$libshutdown$$00000000) refers (Special) to libshutdown2.o(.ARM.Collect$$libshutdown$$0000000A) for __rt_lib_shutdown_signal_1
    libshutdown.o(.ARM.Collect$$libshutdown$$00000000) refers (Special) to libshutdown2.o(.ARM.Collect$$libshutdown$$00000004) for __rt_lib_shutdown_stdio_1
    libshutdown.o(.ARM.Collect$$libshutdown$$00000000) refers (Special) to libshutdown2.o(.ARM.Collect$$libshutdown$$0000000C) for __rt_lib_shutdown_user_alloc_1
    defsig_abrt_inner.o(.text) refers to defsig_general.o(.text) for __default_signal_display
    defsig_rtred_inner.o(.text) refers to defsig_general.o(.text) for __default_signal_display
    defsig_stak_inner.o(.text) refers to defsig_general.o(.text) for __default_signal_display
    defsig_pvfn_inner.o(.text) refers to defsig_general.o(.text) for __default_signal_display
    defsig_cppl_inner.o(.text) refers to defsig_general.o(.text) for __default_signal_display
    defsig_segv_inner.o(.text) refers to defsig_general.o(.text) for __default_signal_display
    defsig_other.o(.text) refers to defsig_general.o(.text) for __default_signal_display
    rredf.o(i.__ARM_common_ll_muluu) refers (Special) to usenofp.o(x$fpl$usenofp) for __I$use$fp


==============================================================================

Removing Unused input sections from the image.

    Removing main.o(.rev16_text), (4 bytes).
    Removing main.o(.revsh_text), (4 bytes).
    Removing stm32f0xx_it.o(.rev16_text), (4 bytes).
    Removing stm32f0xx_it.o(.revsh_text), (4 bytes).
    Removing delay.o(.rev16_text), (4 bytes).
    Removing delay.o(.revsh_text), (4 bytes).
    Removing delay.o(.data), (4 bytes).
    Removing led.o(.rev16_text), (4 bytes).
    Removing led.o(.revsh_text), (4 bytes).
    Removing usart.o(.rev16_text), (4 bytes).
    Removing usart.o(.revsh_text), (4 bytes).
    Removing usart.o(i.fputc), (36 bytes).
    Removing exit.o(.rev16_text), (4 bytes).
    Removing exit.o(.revsh_text), (4 bytes).
    Removing flash.o(.rev16_text), (4 bytes).
    Removing flash.o(.revsh_text), (4 bytes).
    Removing flash.o(i.STMFLASH_ReadWord), (4 bytes).
    Removing iic.o(.rev16_text), (4 bytes).
    Removing iic.o(.revsh_text), (4 bytes).
    Removing iic.o(i.IIC_ADD_write), (54 bytes).
    Removing iic.o(i.IIC_WriteMultByteToSlave), (82 bytes).
    Removing iic.o(i.SDA_IN), (2 bytes).
    Removing iic.o(i.SDA_OUT), (2 bytes).
    Removing motor.o(.rev16_text), (4 bytes).
    Removing motor.o(.revsh_text), (4 bytes).
    Removing motor.o(.data), (2 bytes).
    Removing motor.o(.data), (2 bytes).
    Removing motor.o(.data), (2 bytes).
    Removing motor.o(.data), (2 bytes).
    Removing motor.o(.data), (2 bytes).
    Removing motor.o(.data), (2 bytes).
    Removing motor.o(.data), (2 bytes).
    Removing motor.o(.data), (2 bytes).
    Removing motor.o(.data), (2 bytes).
    Removing mpu6050.o(.rev16_text), (4 bytes).
    Removing mpu6050.o(.revsh_text), (4 bytes).
    Removing mpu6050.o(i.MPU6050_AccRead), (40 bytes).
    Removing mpu6050.o(i.MPU6050_CalOff), (16 bytes).
    Removing mpu6050.o(i.MPU6050_CalOff_Acc), (16 bytes).
    Removing mpu6050.o(i.MPU6050_CalOff_Gyr), (16 bytes).
    Removing mpu6050.o(i.MPU6050_Check), (12 bytes).
    Removing mpu6050.o(i.MPU6050_GyroRead), (40 bytes).
    Removing mpu6050.o(i.MPU6050_ReadByte), (20 bytes).
    Removing mpu6050.o(i.MPU6050_TempRead), (52 bytes).
    Removing mpu6050.o(i.MPU6050_WriteMultBytes), (22 bytes).
    Removing mpu6050.o(i.MPU6050_getDeviceID), (12 bytes).
    Removing mpu6050.o(i.MPU6050_testConnection), (18 bytes).
    Removing nvic.o(.rev16_text), (4 bytes).
    Removing nvic.o(.revsh_text), (4 bytes).
    Removing spi.o(.rev16_text), (4 bytes).
    Removing spi.o(.revsh_text), (4 bytes).
    Removing spi.o(i.SPI_Read_byte), (26 bytes).
    Removing spi.o(i.SPI_Write_byte), (30 bytes).
    Removing system.o(.rev16_text), (4 bytes).
    Removing system.o(.revsh_text), (4 bytes).
    Removing tim.o(.rev16_text), (4 bytes).
    Removing tim.o(.revsh_text), (4 bytes).
    Removing imu.o(.rev16_text), (4 bytes).
    Removing imu.o(.revsh_text), (4 bytes).
    Removing imu.o(.bss), (12 bytes).
    Removing imu.o(.bss), (12 bytes).
    Removing filter.o(.rev16_text), (4 bytes).
    Removing filter.o(.revsh_text), (4 bytes).
    Removing filter.o(i.Aver_Filter1), (104 bytes).
    Removing filter.o(i.Aver_FilterXYZ), (168 bytes).
    Removing filter.o(i.Aver_FilterXYZ6), (348 bytes).
    Removing filter.o(i.LPF_1), (84 bytes).
    Removing filter.o(i.SortAver_Filter), (120 bytes).
    Removing filter.o(i.SortAver_Filter1), (120 bytes).
    Removing filter.o(i.limit_filter), (72 bytes).
    Removing control.o(.rev16_text), (4 bytes).
    Removing control.o(.revsh_text), (4 bytes).
    Removing control.o(i.Safety_Check), (104 bytes).
    Removing control.o(i.Yaw_Control), (52 bytes).
    Removing control.o(.data), (4 bytes).
    Removing control.o(.data), (4 bytes).
    Removing pid.o(.rev16_text), (4 bytes).
    Removing pid.o(.revsh_text), (4 bytes).
    Removing paramsave.o(.rev16_text), (4 bytes).
    Removing paramsave.o(.revsh_text), (4 bytes).
    Removing paramsave.o(i.PID_ClearFlash), (28 bytes).
    Removing paramsave.o(i.ParamsClearAll), (72 bytes).
    Removing ano_dt.o(.rev16_text), (4 bytes).
    Removing ano_dt.o(.revsh_text), (4 bytes).
    Removing ano_dt.o(i.ANO_DT_Send_Power), (76 bytes).
    Removing ano_dt.o(i.Data_Send_AngleRate), (220 bytes).
    Removing remotedata.o(.rev16_text), (4 bytes).
    Removing remotedata.o(.revsh_text), (4 bytes).
    Removing remotedata.o(i.UnControl_Land), (24 bytes).
    Removing bmp280.o(.rev16_text), (4 bytes).
    Removing bmp280.o(.revsh_text), (4 bytes).
    Removing si24r1.o(.rev16_text), (4 bytes).
    Removing si24r1.o(.revsh_text), (4 bytes).
    Removing si24r1.o(i.SI24R1_GetAddr), (68 bytes).
    Removing si24r1.o(i.SI24R1_Test), (68 bytes).
    Removing power.o(.rev16_text), (4 bytes).
    Removing power.o(.revsh_text), (4 bytes).
    Removing altitude.o(.rev16_text), (4 bytes).
    Removing altitude.o(.revsh_text), (4 bytes).
    Removing altitude.o(.data), (1 bytes).
    Removing altitude.o(.data), (4 bytes).
    Removing system_stm32f0xx.o(.rev16_text), (4 bytes).
    Removing system_stm32f0xx.o(.revsh_text), (4 bytes).
    Removing system_stm32f0xx.o(i.SystemCoreClockUpdate), (108 bytes).
    Removing stm32f0xx_adc.o(.rev16_text), (4 bytes).
    Removing stm32f0xx_adc.o(.revsh_text), (4 bytes).
    Removing stm32f0xx_adc.o(i.ADC_AnalogWatchdogCmd), (20 bytes).
    Removing stm32f0xx_adc.o(i.ADC_AnalogWatchdogSingleChannelCmd), (20 bytes).
    Removing stm32f0xx_adc.o(i.ADC_AnalogWatchdogSingleChannelConfig), (14 bytes).
    Removing stm32f0xx_adc.o(i.ADC_AnalogWatchdogThresholdsConfig), (8 bytes).
    Removing stm32f0xx_adc.o(i.ADC_AutoPowerOffCmd), (20 bytes).
    Removing stm32f0xx_adc.o(i.ADC_ClearFlag), (4 bytes).
    Removing stm32f0xx_adc.o(i.ADC_ClearITPendingBit), (4 bytes).
    Removing stm32f0xx_adc.o(i.ADC_ClockModeConfig), (4 bytes).
    Removing stm32f0xx_adc.o(i.ADC_ContinuousModeCmd), (20 bytes).
    Removing stm32f0xx_adc.o(i.ADC_DMACmd), (20 bytes).
    Removing stm32f0xx_adc.o(i.ADC_DMARequestModeConfig), (16 bytes).
    Removing stm32f0xx_adc.o(i.ADC_DiscModeCmd), (20 bytes).
    Removing stm32f0xx_adc.o(i.ADC_GetITStatus), (22 bytes).
    Removing stm32f0xx_adc.o(i.ADC_ITConfig), (16 bytes).
    Removing stm32f0xx_adc.o(i.ADC_JitterCmd), (16 bytes).
    Removing stm32f0xx_adc.o(i.ADC_OverrunModeCmd), (20 bytes).
    Removing stm32f0xx_adc.o(i.ADC_StopOfConversion), (10 bytes).
    Removing stm32f0xx_adc.o(i.ADC_TempSensorCmd), (28 bytes).
    Removing stm32f0xx_adc.o(i.ADC_VbatCmd), (28 bytes).
    Removing stm32f0xx_adc.o(i.ADC_VrefintCmd), (28 bytes).
    Removing stm32f0xx_adc.o(i.ADC_WaitModeCmd), (20 bytes).
    Removing stm32f0xx_exti.o(.rev16_text), (4 bytes).
    Removing stm32f0xx_exti.o(.revsh_text), (4 bytes).
    Removing stm32f0xx_exti.o(i.EXTI_ClearFlag), (12 bytes).
    Removing stm32f0xx_exti.o(i.EXTI_DeInit), (32 bytes).
    Removing stm32f0xx_exti.o(i.EXTI_GenerateSWInterrupt), (16 bytes).
    Removing stm32f0xx_exti.o(i.EXTI_GetFlagStatus), (20 bytes).
    Removing stm32f0xx_exti.o(i.EXTI_StructInit), (14 bytes).
    Removing stm32f0xx_flash.o(.rev16_text), (4 bytes).
    Removing stm32f0xx_flash.o(.revsh_text), (4 bytes).
    Removing stm32f0xx_flash.o(i.FLASH_ClearFlag), (12 bytes).
    Removing stm32f0xx_flash.o(i.FLASH_EraseAllPages), (52 bytes).
    Removing stm32f0xx_flash.o(i.FLASH_GetFlagStatus), (20 bytes).
    Removing stm32f0xx_flash.o(i.FLASH_GetPrefetchBufferStatus), (20 bytes).
    Removing stm32f0xx_flash.o(i.FLASH_ITConfig), (24 bytes).
    Removing stm32f0xx_flash.o(i.FLASH_OB_BOOT0Config), (64 bytes).
    Removing stm32f0xx_flash.o(i.FLASH_OB_BOOT0SWConfig), (64 bytes).
    Removing stm32f0xx_flash.o(i.FLASH_OB_BOOTConfig), (64 bytes).
    Removing stm32f0xx_flash.o(i.FLASH_OB_EnableWRP), (140 bytes).
    Removing stm32f0xx_flash.o(i.FLASH_OB_Erase), (116 bytes).
    Removing stm32f0xx_flash.o(i.FLASH_OB_GetRDP), (20 bytes).
    Removing stm32f0xx_flash.o(i.FLASH_OB_GetUser), (16 bytes).
    Removing stm32f0xx_flash.o(i.FLASH_OB_GetWRP), (12 bytes).
    Removing stm32f0xx_flash.o(i.FLASH_OB_Launch), (20 bytes).
    Removing stm32f0xx_flash.o(i.FLASH_OB_Lock), (16 bytes).
    Removing stm32f0xx_flash.o(i.FLASH_OB_ProgramData), (56 bytes).
    Removing stm32f0xx_flash.o(i.FLASH_OB_RDPConfig), (92 bytes).
    Removing stm32f0xx_flash.o(i.FLASH_OB_SRAMParityConfig), (64 bytes).
    Removing stm32f0xx_flash.o(i.FLASH_OB_Unlock), (32 bytes).
    Removing stm32f0xx_flash.o(i.FLASH_OB_UserConfig), (72 bytes).
    Removing stm32f0xx_flash.o(i.FLASH_OB_VDDAConfig), (64 bytes).
    Removing stm32f0xx_flash.o(i.FLASH_OB_WriteUser), (60 bytes).
    Removing stm32f0xx_flash.o(i.FLASH_PrefetchBufferCmd), (24 bytes).
    Removing stm32f0xx_flash.o(i.FLASH_ProgramHalfWord), (52 bytes).
    Removing stm32f0xx_flash.o(i.FLASH_SetLatency), (20 bytes).
    Removing stm32f0xx_gpio.o(.rev16_text), (4 bytes).
    Removing stm32f0xx_gpio.o(.revsh_text), (4 bytes).
    Removing stm32f0xx_gpio.o(i.GPIO_DeInit), (112 bytes).
    Removing stm32f0xx_gpio.o(i.GPIO_PinLockConfig), (26 bytes).
    Removing stm32f0xx_gpio.o(i.GPIO_ReadInputData), (4 bytes).
    Removing stm32f0xx_gpio.o(i.GPIO_ReadOutputData), (4 bytes).
    Removing stm32f0xx_gpio.o(i.GPIO_ReadOutputDataBit), (14 bytes).
    Removing stm32f0xx_gpio.o(i.GPIO_StructInit), (24 bytes).
    Removing stm32f0xx_gpio.o(i.GPIO_Write), (4 bytes).
    Removing stm32f0xx_gpio.o(i.GPIO_WriteBit), (12 bytes).
    Removing stm32f0xx_rcc.o(.rev16_text), (4 bytes).
    Removing stm32f0xx_rcc.o(.revsh_text), (4 bytes).
    Removing stm32f0xx_rcc.o(i.RCC_ADCCLKConfig), (44 bytes).
    Removing stm32f0xx_rcc.o(i.RCC_AHBPeriphResetCmd), (24 bytes).
    Removing stm32f0xx_rcc.o(i.RCC_AdjustHSI14CalibrationValue), (20 bytes).
    Removing stm32f0xx_rcc.o(i.RCC_AdjustHSICalibrationValue), (20 bytes).
    Removing stm32f0xx_rcc.o(i.RCC_BackupResetCmd), (28 bytes).
    Removing stm32f0xx_rcc.o(i.RCC_CECCLKConfig), (24 bytes).
    Removing stm32f0xx_rcc.o(i.RCC_ClearFlag), (20 bytes).
    Removing stm32f0xx_rcc.o(i.RCC_ClockSecuritySystemCmd), (28 bytes).
    Removing stm32f0xx_rcc.o(i.RCC_DeInit), (92 bytes).
    Removing stm32f0xx_rcc.o(i.RCC_GetFlagStatus), (52 bytes).
    Removing stm32f0xx_rcc.o(i.RCC_GetSYSCLKSource), (16 bytes).
    Removing stm32f0xx_rcc.o(i.RCC_HCLKConfig), (20 bytes).
    Removing stm32f0xx_rcc.o(i.RCC_HSI14ADCRequestCmd), (24 bytes).
    Removing stm32f0xx_rcc.o(i.RCC_HSI14Cmd), (28 bytes).
    Removing stm32f0xx_rcc.o(i.RCC_HSI48Cmd), (28 bytes).
    Removing stm32f0xx_rcc.o(i.RCC_HSICmd), (28 bytes).
    Removing stm32f0xx_rcc.o(i.RCC_I2CCLKConfig), (24 bytes).
    Removing stm32f0xx_rcc.o(i.RCC_LSEConfig), (32 bytes).
    Removing stm32f0xx_rcc.o(i.RCC_LSEDriveConfig), (24 bytes).
    Removing stm32f0xx_rcc.o(i.RCC_LSICmd), (28 bytes).
    Removing stm32f0xx_rcc.o(i.RCC_MCOConfig), (24 bytes).
    Removing stm32f0xx_rcc.o(i.RCC_PCLKConfig), (20 bytes).
    Removing stm32f0xx_rcc.o(i.RCC_PLLCmd), (28 bytes).
    Removing stm32f0xx_rcc.o(i.RCC_PLLConfig), (28 bytes).
    Removing stm32f0xx_rcc.o(i.RCC_PREDIV1Config), (20 bytes).
    Removing stm32f0xx_rcc.o(i.RCC_RTCCLKCmd), (28 bytes).
    Removing stm32f0xx_rcc.o(i.RCC_RTCCLKConfig), (16 bytes).
    Removing stm32f0xx_rcc.o(i.RCC_SYSCLKConfig), (20 bytes).
    Removing stm32f0xx_rcc.o(i.RCC_USARTCLKConfig), (48 bytes).
    Removing stm32f0xx_rcc.o(i.RCC_USBCLKConfig), (24 bytes).
    Removing stm32f0xx_rcc.o(i.RCC_WaitForHSEStartUp), (44 bytes).
    Removing stm32f0xx_spi.o(.rev16_text), (4 bytes).
    Removing stm32f0xx_spi.o(.revsh_text), (4 bytes).
    Removing stm32f0xx_spi.o(i.I2S_Cmd), (28 bytes).
    Removing stm32f0xx_spi.o(i.I2S_Init), (156 bytes).
    Removing stm32f0xx_spi.o(i.I2S_StructInit), (18 bytes).
    Removing stm32f0xx_spi.o(i.SPI_BiDirectionalLineConfig), (28 bytes).
    Removing stm32f0xx_spi.o(i.SPI_CRCLengthConfig), (20 bytes).
    Removing stm32f0xx_spi.o(i.SPI_CalculateCRC), (28 bytes).
    Removing stm32f0xx_spi.o(i.SPI_DataSizeConfig), (16 bytes).
    Removing stm32f0xx_spi.o(i.SPI_GetCRC), (12 bytes).
    Removing stm32f0xx_spi.o(i.SPI_GetCRCPolynomial), (4 bytes).
    Removing stm32f0xx_spi.o(i.SPI_GetReceptionFIFOStatus), (10 bytes).
    Removing stm32f0xx_spi.o(i.SPI_GetTransmissionFIFOStatus), (10 bytes).
    Removing stm32f0xx_spi.o(i.SPI_I2S_ClearFlag), (6 bytes).
    Removing stm32f0xx_spi.o(i.SPI_I2S_DMACmd), (16 bytes).
    Removing stm32f0xx_spi.o(i.SPI_I2S_GetITStatus), (42 bytes).
    Removing stm32f0xx_spi.o(i.SPI_I2S_ITConfig), (24 bytes).
    Removing stm32f0xx_spi.o(i.SPI_I2S_ReceiveData16), (4 bytes).
    Removing stm32f0xx_spi.o(i.SPI_I2S_SendData16), (4 bytes).
    Removing stm32f0xx_spi.o(i.SPI_LastDMATransferCmd), (20 bytes).
    Removing stm32f0xx_spi.o(i.SPI_NSSInternalSoftwareConfig), (28 bytes).
    Removing stm32f0xx_spi.o(i.SPI_NSSPulseModeCmd), (18 bytes).
    Removing stm32f0xx_spi.o(i.SPI_SSOutputCmd), (18 bytes).
    Removing stm32f0xx_spi.o(i.SPI_StructInit), (28 bytes).
    Removing stm32f0xx_spi.o(i.SPI_TIModeCmd), (18 bytes).
    Removing stm32f0xx_spi.o(i.SPI_TransmitCRC), (12 bytes).
    Removing stm32f0xx_syscfg.o(.rev16_text), (4 bytes).
    Removing stm32f0xx_syscfg.o(.revsh_text), (4 bytes).
    Removing stm32f0xx_syscfg.o(i.SYSCFG_BreakConfig), (16 bytes).
    Removing stm32f0xx_syscfg.o(i.SYSCFG_ClearFlag), (16 bytes).
    Removing stm32f0xx_syscfg.o(i.SYSCFG_DMAChannelRemapConfig), (24 bytes).
    Removing stm32f0xx_syscfg.o(i.SYSCFG_DeInit), (36 bytes).
    Removing stm32f0xx_syscfg.o(i.SYSCFG_GetFlagStatus), (20 bytes).
    Removing stm32f0xx_syscfg.o(i.SYSCFG_GetPendingIT), (24 bytes).
    Removing stm32f0xx_syscfg.o(i.SYSCFG_I2CFastModePlusConfig), (24 bytes).
    Removing stm32f0xx_syscfg.o(i.SYSCFG_IRDAEnvSelection), (24 bytes).
    Removing stm32f0xx_syscfg.o(i.SYSCFG_MemoryRemapConfig), (20 bytes).
    Removing stm32f0xx_tim.o(.rev16_text), (4 bytes).
    Removing stm32f0xx_tim.o(.revsh_text), (4 bytes).
    Removing stm32f0xx_tim.o(i.TI1_Config), (40 bytes).
    Removing stm32f0xx_tim.o(i.TI2_Config), (48 bytes).
    Removing stm32f0xx_tim.o(i.TIM_ARRPreloadConfig), (18 bytes).
    Removing stm32f0xx_tim.o(i.TIM_BDTRConfig), (34 bytes).
    Removing stm32f0xx_tim.o(i.TIM_BDTRStructInit), (18 bytes).
    Removing stm32f0xx_tim.o(i.TIM_CCPreloadControl), (20 bytes).
    Removing stm32f0xx_tim.o(i.TIM_CCxCmd), (22 bytes).
    Removing stm32f0xx_tim.o(i.TIM_CCxNCmd), (22 bytes).
    Removing stm32f0xx_tim.o(i.TIM_ClearFlag), (6 bytes).
    Removing stm32f0xx_tim.o(i.TIM_ClearOC1Ref), (12 bytes).
    Removing stm32f0xx_tim.o(i.TIM_ClearOC2Ref), (14 bytes).
    Removing stm32f0xx_tim.o(i.TIM_ClearOC3Ref), (12 bytes).
    Removing stm32f0xx_tim.o(i.TIM_ClearOC4Ref), (14 bytes).
    Removing stm32f0xx_tim.o(i.TIM_CounterModeConfig), (12 bytes).
    Removing stm32f0xx_tim.o(i.TIM_DMACmd), (16 bytes).
    Removing stm32f0xx_tim.o(i.TIM_DMAConfig), (8 bytes).
    Removing stm32f0xx_tim.o(i.TIM_DeInit), (204 bytes).
    Removing stm32f0xx_tim.o(i.TIM_ETRClockMode1Config), (28 bytes).
    Removing stm32f0xx_tim.o(i.TIM_ETRClockMode2Config), (20 bytes).
    Removing stm32f0xx_tim.o(i.TIM_ETRConfig), (18 bytes).
    Removing stm32f0xx_tim.o(i.TIM_EncoderInterfaceConfig), (48 bytes).
    Removing stm32f0xx_tim.o(i.TIM_ForcedOC1Config), (12 bytes).
    Removing stm32f0xx_tim.o(i.TIM_ForcedOC2Config), (20 bytes).
    Removing stm32f0xx_tim.o(i.TIM_ForcedOC3Config), (12 bytes).
    Removing stm32f0xx_tim.o(i.TIM_ForcedOC4Config), (20 bytes).
    Removing stm32f0xx_tim.o(i.TIM_GenerateEvent), (4 bytes).
    Removing stm32f0xx_tim.o(i.TIM_GetCapture1), (4 bytes).
    Removing stm32f0xx_tim.o(i.TIM_GetCapture2), (4 bytes).
    Removing stm32f0xx_tim.o(i.TIM_GetCapture3), (4 bytes).
    Removing stm32f0xx_tim.o(i.TIM_GetCapture4), (4 bytes).
    Removing stm32f0xx_tim.o(i.TIM_GetCounter), (4 bytes).
    Removing stm32f0xx_tim.o(i.TIM_GetFlagStatus), (14 bytes).
    Removing stm32f0xx_tim.o(i.TIM_GetPrescaler), (4 bytes).
    Removing stm32f0xx_tim.o(i.TIM_ICInit), (184 bytes).
    Removing stm32f0xx_tim.o(i.TIM_ICStructInit), (16 bytes).
    Removing stm32f0xx_tim.o(i.TIM_ITRxExternalClockConfig), (18 bytes).
    Removing stm32f0xx_tim.o(i.TIM_InternalClockConfig), (10 bytes).
    Removing stm32f0xx_tim.o(i.TIM_OC1FastConfig), (12 bytes).
    Removing stm32f0xx_tim.o(i.TIM_OC1NPolarityConfig), (12 bytes).
    Removing stm32f0xx_tim.o(i.TIM_OC1PolarityConfig), (12 bytes).
    Removing stm32f0xx_tim.o(i.TIM_OC1PreloadConfig), (12 bytes).
    Removing stm32f0xx_tim.o(i.TIM_OC2FastConfig), (20 bytes).
    Removing stm32f0xx_tim.o(i.TIM_OC2NPolarityConfig), (14 bytes).
    Removing stm32f0xx_tim.o(i.TIM_OC2PolarityConfig), (14 bytes).
    Removing stm32f0xx_tim.o(i.TIM_OC2PreloadConfig), (20 bytes).
    Removing stm32f0xx_tim.o(i.TIM_OC3FastConfig), (12 bytes).
    Removing stm32f0xx_tim.o(i.TIM_OC3NPolarityConfig), (20 bytes).
    Removing stm32f0xx_tim.o(i.TIM_OC3PolarityConfig), (20 bytes).
    Removing stm32f0xx_tim.o(i.TIM_OC3PreloadConfig), (12 bytes).
    Removing stm32f0xx_tim.o(i.TIM_OC4FastConfig), (20 bytes).
    Removing stm32f0xx_tim.o(i.TIM_OC4PolarityConfig), (20 bytes).
    Removing stm32f0xx_tim.o(i.TIM_OC4PreloadConfig), (20 bytes).
    Removing stm32f0xx_tim.o(i.TIM_OCStructInit), (20 bytes).
    Removing stm32f0xx_tim.o(i.TIM_PWMIConfig), (104 bytes).
    Removing stm32f0xx_tim.o(i.TIM_PrescalerConfig), (6 bytes).
    Removing stm32f0xx_tim.o(i.TIM_RemapConfig), (6 bytes).
    Removing stm32f0xx_tim.o(i.TIM_SelectCCDMA), (18 bytes).
    Removing stm32f0xx_tim.o(i.TIM_SelectCOM), (18 bytes).
    Removing stm32f0xx_tim.o(i.TIM_SelectHallSensor), (18 bytes).
    Removing stm32f0xx_tim.o(i.TIM_SelectInputTrigger), (12 bytes).
    Removing stm32f0xx_tim.o(i.TIM_SelectMasterSlaveMode), (16 bytes).
    Removing stm32f0xx_tim.o(i.TIM_SelectOCREFClear), (16 bytes).
    Removing stm32f0xx_tim.o(i.TIM_SelectOCxM), (70 bytes).
    Removing stm32f0xx_tim.o(i.TIM_SelectOnePulseMode), (16 bytes).
    Removing stm32f0xx_tim.o(i.TIM_SelectOutputTrigger), (16 bytes).
    Removing stm32f0xx_tim.o(i.TIM_SelectSlaveMode), (16 bytes).
    Removing stm32f0xx_tim.o(i.TIM_SetAutoreload), (4 bytes).
    Removing stm32f0xx_tim.o(i.TIM_SetClockDivision), (20 bytes).
    Removing stm32f0xx_tim.o(i.TIM_SetCompare1), (4 bytes).
    Removing stm32f0xx_tim.o(i.TIM_SetCompare2), (4 bytes).
    Removing stm32f0xx_tim.o(i.TIM_SetCompare3), (4 bytes).
    Removing stm32f0xx_tim.o(i.TIM_SetCompare4), (4 bytes).
    Removing stm32f0xx_tim.o(i.TIM_SetCounter), (4 bytes).
    Removing stm32f0xx_tim.o(i.TIM_SetIC1Prescaler), (16 bytes).
    Removing stm32f0xx_tim.o(i.TIM_SetIC2Prescaler), (24 bytes).
    Removing stm32f0xx_tim.o(i.TIM_SetIC3Prescaler), (16 bytes).
    Removing stm32f0xx_tim.o(i.TIM_SetIC4Prescaler), (24 bytes).
    Removing stm32f0xx_tim.o(i.TIM_TIxExternalClockConfig), (48 bytes).
    Removing stm32f0xx_tim.o(i.TIM_TimeBaseStructInit), (18 bytes).
    Removing stm32f0xx_tim.o(i.TIM_UpdateDisableConfig), (18 bytes).
    Removing stm32f0xx_tim.o(i.TIM_UpdateRequestConfig), (18 bytes).
    Removing stm32f0xx_usart.o(.rev16_text), (4 bytes).
    Removing stm32f0xx_usart.o(.revsh_text), (4 bytes).
    Removing stm32f0xx_usart.o(i.USART_AddressDetectionConfig), (16 bytes).
    Removing stm32f0xx_usart.o(i.USART_AutoBaudRateCmd), (20 bytes).
    Removing stm32f0xx_usart.o(i.USART_AutoBaudRateConfig), (18 bytes).
    Removing stm32f0xx_usart.o(i.USART_ClockInit), (28 bytes).
    Removing stm32f0xx_usart.o(i.USART_ClockStructInit), (12 bytes).
    Removing stm32f0xx_usart.o(i.USART_DECmd), (20 bytes).
    Removing stm32f0xx_usart.o(i.USART_DEPolarityConfig), (18 bytes).
    Removing stm32f0xx_usart.o(i.USART_DMACmd), (16 bytes).
    Removing stm32f0xx_usart.o(i.USART_DMAReceptionErrorConfig), (18 bytes).
    Removing stm32f0xx_usart.o(i.USART_DataInvCmd), (20 bytes).
    Removing stm32f0xx_usart.o(i.USART_DeInit), (184 bytes).
    Removing stm32f0xx_usart.o(i.USART_DirectionModeCmd), (16 bytes).
    Removing stm32f0xx_usart.o(i.USART_HalfDuplexCmd), (18 bytes).
    Removing stm32f0xx_usart.o(i.USART_InvPinCmd), (16 bytes).
    Removing stm32f0xx_usart.o(i.USART_IrDACmd), (18 bytes).
    Removing stm32f0xx_usart.o(i.USART_IrDAConfig), (16 bytes).
    Removing stm32f0xx_usart.o(i.USART_LINBreakDetectLengthConfig), (16 bytes).
    Removing stm32f0xx_usart.o(i.USART_LINCmd), (20 bytes).
    Removing stm32f0xx_usart.o(i.USART_MSBFirstCmd), (20 bytes).
    Removing stm32f0xx_usart.o(i.USART_MuteModeCmd), (20 bytes).
    Removing stm32f0xx_usart.o(i.USART_MuteModeWakeUpConfig), (18 bytes).
    Removing stm32f0xx_usart.o(i.USART_OneBitMethodCmd), (20 bytes).
    Removing stm32f0xx_usart.o(i.USART_OverSampling8Cmd), (20 bytes).
    Removing stm32f0xx_usart.o(i.USART_OverrunDetectionConfig), (18 bytes).
    Removing stm32f0xx_usart.o(i.USART_ReceiveData), (8 bytes).
    Removing stm32f0xx_usart.o(i.USART_ReceiverTimeOutCmd), (20 bytes).
    Removing stm32f0xx_usart.o(i.USART_RequestCmd), (16 bytes).
    Removing stm32f0xx_usart.o(i.USART_STOPModeCmd), (18 bytes).
    Removing stm32f0xx_usart.o(i.USART_SWAPPinCmd), (20 bytes).
    Removing stm32f0xx_usart.o(i.USART_SetAddress), (18 bytes).
    Removing stm32f0xx_usart.o(i.USART_SetAutoRetryCount), (20 bytes).
    Removing stm32f0xx_usart.o(i.USART_SetBlockLength), (18 bytes).
    Removing stm32f0xx_usart.o(i.USART_SetDEAssertionTime), (20 bytes).
    Removing stm32f0xx_usart.o(i.USART_SetDEDeassertionTime), (20 bytes).
    Removing stm32f0xx_usart.o(i.USART_SetGuardTime), (16 bytes).
    Removing stm32f0xx_usart.o(i.USART_SetPrescaler), (16 bytes).
    Removing stm32f0xx_usart.o(i.USART_SetReceiverTimeOut), (16 bytes).
    Removing stm32f0xx_usart.o(i.USART_SmartCardCmd), (18 bytes).
    Removing stm32f0xx_usart.o(i.USART_SmartCardNACKCmd), (18 bytes).
    Removing stm32f0xx_usart.o(i.USART_StopModeWakeUpSourceConfig), (18 bytes).
    Removing stm32f0xx_usart.o(i.USART_StructInit), (22 bytes).
    Removing stm32f0xx_misc.o(.rev16_text), (4 bytes).
    Removing stm32f0xx_misc.o(.revsh_text), (4 bytes).
    Removing stm32f0xx_misc.o(i.NVIC_SystemLPConfig), (24 bytes).

370 unused section(s) (total 8925 bytes) removed from the image.

==============================================================================

Image Symbol Table

    Local Symbols

    Symbol Name                              Value     Ov Type        Size  Object(Section)

    ../clib/angel/boardlib.s                 0x00000000   Number         0  boardshut.o ABSOLUTE
    ../clib/angel/boardlib.s                 0x00000000   Number         0  boardinit2.o ABSOLUTE
    ../clib/angel/boardlib.s                 0x00000000   Number         0  boardinit1.o ABSOLUTE
    ../clib/angel/boardlib.s                 0x00000000   Number         0  boardinit3.o ABSOLUTE
    ../clib/angel/handlers.s                 0x00000000   Number         0  __scatter_zi.o ABSOLUTE
    ../clib/angel/handlers.s                 0x00000000   Number         0  __scatter_copy.o ABSOLUTE
    ../clib/angel/kernel.s                   0x00000000   Number         0  rtexit2.o ABSOLUTE
    ../clib/angel/kernel.s                   0x00000000   Number         0  rtexit.o ABSOLUTE
    ../clib/angel/kernel.s                   0x00000000   Number         0  __rtentry.o ABSOLUTE
    ../clib/angel/kernel.s                   0x00000000   Number         0  __rtentry2.o ABSOLUTE
    ../clib/angel/kernel.s                   0x00000000   Number         0  __rtentry4.o ABSOLUTE
    ../clib/angel/rt.s                       0x00000000   Number         0  aeabi_idiv0_sigfpe.o ABSOLUTE
    ../clib/angel/rt.s                       0x00000000   Number         0  rt_raise.o ABSOLUTE
    ../clib/angel/rt.s                       0x00000000   Number         0  rt_div0.o ABSOLUTE
    ../clib/angel/rt.s                       0x00000000   Number         0  aeabi_ldiv0.o ABSOLUTE
    ../clib/angel/rt.s                       0x00000000   Number         0  aeabi_ldiv0_sigfpe.o ABSOLUTE
    ../clib/angel/rt.s                       0x00000000   Number         0  rt_errno_addr.o ABSOLUTE
    ../clib/angel/rt.s                       0x00000000   Number         0  rt_errno_addr_intlibspace.o ABSOLUTE
    ../clib/angel/rt.s                       0x00000000   Number         0  aeabi_idiv0.o ABSOLUTE
    ../clib/angel/scatterp.s                 0x00000000   Number         0  __scatter.o ABSOLUTE
    ../clib/angel/startup.s                  0x00000000   Number         0  __main.o ABSOLUTE
    ../clib/angel/sys.s                      0x00000000   Number         0  libspace.o ABSOLUTE
    ../clib/angel/sys.s                      0x00000000   Number         0  tempstk.o ABSOLUTE
    ../clib/angel/sys.s                      0x00000000   Number         0  sys_stackheap_outer.o ABSOLUTE
    ../clib/angel/sys.s                      0x00000000   Number         0  use_no_semi.o ABSOLUTE
    ../clib/angel/sys.s                      0x00000000   Number         0  indicate_semi.o ABSOLUTE
    ../clib/angel/sysapp.c                   0x00000000   Number         0  sys_command.o ABSOLUTE
    ../clib/angel/sysapp.c                   0x00000000   Number         0  sys_wrch.o ABSOLUTE
    ../clib/angel/sysapp.c                   0x00000000   Number         0  sys_exit.o ABSOLUTE
    ../clib/armsys.c                         0x00000000   Number         0  argv_veneer.o ABSOLUTE
    ../clib/armsys.c                         0x00000000   Number         0  no_argv.o ABSOLUTE
    ../clib/armsys.c                         0x00000000   Number         0  _get_argv_nomalloc.o ABSOLUTE
    ../clib/division.c                       0x00000000   Number         0  llsdiv.o ABSOLUTE
    ../clib/division.c                       0x00000000   Number         0  lludiv.o ABSOLUTE
    ../clib/division.s                       0x00000000   Number         0  aeabi_sdiv_div0.o ABSOLUTE
    ../clib/division.s                       0x00000000   Number         0  aeabi_sdiv.o ABSOLUTE
    ../clib/fenv.c                           0x00000000   Number         0  _rserrno.o ABSOLUTE
    ../clib/heapalloc.c                      0x00000000   Number         0  hrguard.o ABSOLUTE
    ../clib/heapaux.c                        0x00000000   Number         0  heapauxi.o ABSOLUTE
    ../clib/libinit.s                        0x00000000   Number         0  libshutdown.o ABSOLUTE
    ../clib/libinit.s                        0x00000000   Number         0  libinit2.o ABSOLUTE
    ../clib/libinit.s                        0x00000000   Number         0  libshutdown2.o ABSOLUTE
    ../clib/libinit.s                        0x00000000   Number         0  libinit.o ABSOLUTE
    ../clib/longlong.c                       0x00000000   Number         0  llmul.o ABSOLUTE
    ../clib/memcpset.c                       0x00000000   Number         0  rt_memcpy.o ABSOLUTE
    ../clib/memcpset.c                       0x00000000   Number         0  rt_memcpy.o ABSOLUTE
    ../clib/signal.c                         0x00000000   Number         0  defsig_stak_inner.o ABSOLUTE
    ../clib/signal.c                         0x00000000   Number         0  defsig_pvfn_inner.o ABSOLUTE
    ../clib/signal.c                         0x00000000   Number         0  defsig_fpe_outer.o ABSOLUTE
    ../clib/signal.c                         0x00000000   Number         0  defsig_fpe_formal.o ABSOLUTE
    ../clib/signal.c                         0x00000000   Number         0  defsig_cppl_inner.o ABSOLUTE
    ../clib/signal.c                         0x00000000   Number         0  defsig_segv_inner.o ABSOLUTE
    ../clib/signal.c                         0x00000000   Number         0  defsig_other.o ABSOLUTE
    ../clib/signal.c                         0x00000000   Number         0  defsig_exit.o ABSOLUTE
    ../clib/signal.c                         0x00000000   Number         0  defsig_fpe_inner.o ABSOLUTE
    ../clib/signal.c                         0x00000000   Number         0  defsig_rtmem_outer.o ABSOLUTE
    ../clib/signal.c                         0x00000000   Number         0  defsig_rtmem_formal.o ABSOLUTE
    ../clib/signal.c                         0x00000000   Number         0  __raise.o ABSOLUTE
    ../clib/signal.c                         0x00000000   Number         0  defsig_general.o ABSOLUTE
    ../clib/signal.c                         0x00000000   Number         0  defsig_rtmem_inner.o ABSOLUTE
    ../clib/signal.c                         0x00000000   Number         0  defsig_rtred_inner.o ABSOLUTE
    ../clib/signal.c                         0x00000000   Number         0  defsig_abrt_inner.o ABSOLUTE
    ../clib/signal.s                         0x00000000   Number         0  defsig.o ABSOLUTE
    ../clib/stdlib.c                         0x00000000   Number         0  exit.o ABSOLUTE
    ../clib/stdlib.c                         0x00000000   Number         0  rand.o ABSOLUTE
    ../clib/stdlib.c                         0x00000000   Number         0  rand.o ABSOLUTE
    ../fplib/cfplib/cmpret.c                 0x00000000   Number         0  cmpret.o ABSOLUTE
    ../fplib/cfplib/d2f.c                    0x00000000   Number         0  d2f.o ABSOLUTE
    ../fplib/cfplib/daddsub.c                0x00000000   Number         0  daddsub.o ABSOLUTE
    ../fplib/cfplib/dcmpin.c                 0x00000000   Number         0  dcmpin.o ABSOLUTE
    ../fplib/cfplib/ddiv.c                   0x00000000   Number         0  ddiv.o ABSOLUTE
    ../fplib/cfplib/dmul.c                   0x00000000   Number         0  dmul.o ABSOLUTE
    ../fplib/cfplib/dsqrt.c                  0x00000000   Number         0  dsqrt.o ABSOLUTE
    ../fplib/cfplib/f2d.c                    0x00000000   Number         0  f2d.o ABSOLUTE
    ../fplib/cfplib/fcmpin.c                 0x00000000   Number         0  fcmpin.o ABSOLUTE
    ../fplib/cfplib/fdiv.c                   0x00000000   Number         0  fdiv.o ABSOLUTE
    ../fplib/cfplib/ffix.c                   0x00000000   Number         0  ffixui.o ABSOLUTE
    ../fplib/cfplib/ffix.c                   0x00000000   Number         0  ffixi.o ABSOLUTE
    ../fplib/cfplib/fflt.c                   0x00000000   Number         0  fflti.o ABSOLUTE
    ../fplib/cfplib/fflt.c                   0x00000000   Number         0  dflti.o ABSOLUTE
    ../fplib/cfplib/fpinit.c                 0x00000000   Number         0  fpinit.o ABSOLUTE
    ../fplib/cfplib/frnd.c                   0x00000000   Number         0  frnd.o ABSOLUTE
    ../fplib/cfplib/nan2.c                   0x00000000   Number         0  dnan2.o ABSOLUTE
    ../fplib/cfplib/nan2.c                   0x00000000   Number         0  fnan2.o ABSOLUTE
    ../fplib/cfplib/retnan.c                 0x00000000   Number         0  retnan.o ABSOLUTE
    ../fplib/cfplib/scalbn.c                 0x00000000   Number         0  fscalbn.o ABSOLUTE
    ../fplib/cfplib/scalbn.c                 0x00000000   Number         0  dscalbn.o ABSOLUTE
    ../fplib/dleqf6m.s                       0x00000000   Number         0  dlef.o ABSOLUTE
    ../fplib/drleqf6m.s                      0x00000000   Number         0  drlef.o ABSOLUTE
    ../fplib/faddsub6m.s                     0x00000000   Number         0  faddsub.o ABSOLUTE
    ../fplib/fleqf6m.s                       0x00000000   Number         0  flef.o ABSOLUTE
    ../fplib/fmul6m.s                        0x00000000   Number         0  fmul.o ABSOLUTE
    ../fplib/frleqf6m.s                      0x00000000   Number         0  frlef.o ABSOLUTE
    ../fplib/usenofp.s                       0x00000000   Number         0  usenofp.o ABSOLUTE
    ../mathlib/asin.c                        0x00000000   Number         0  asin_x.o ABSOLUTE
    ../mathlib/asin.c                        0x00000000   Number         0  asin.o ABSOLUTE
    ../mathlib/atan.c                        0x00000000   Number         0  atan.o ABSOLUTE
    ../mathlib/atan.c                        0x00000000   Number         0  atan_x.o ABSOLUTE
    ../mathlib/atan2.c                       0x00000000   Number         0  atan2.o ABSOLUTE
    ../mathlib/atan2.c                       0x00000000   Number         0  atan2_x.o ABSOLUTE
    ../mathlib/cosf.c                        0x00000000   Number         0  cosf_x.o ABSOLUTE
    ../mathlib/cosf.c                        0x00000000   Number         0  cosf.o ABSOLUTE
    ../mathlib/dunder.c                      0x00000000   Number         0  dunder.o ABSOLUTE
    ../mathlib/fpclassify.c                  0x00000000   Number         0  fpclassify.o ABSOLUTE
    ../mathlib/fpclassifyf.c                 0x00000000   Number         0  fpclassifyf.o ABSOLUTE
    ../mathlib/funder.c                      0x00000000   Number         0  funder.o ABSOLUTE
    ../mathlib/poly.c                        0x00000000   Number         0  poly.o ABSOLUTE
    ../mathlib/pow.c                         0x00000000   Number         0  pow_x.o ABSOLUTE
    ../mathlib/pow.c                         0x00000000   Number         0  pow.o ABSOLUTE
    ../mathlib/qnan.c                        0x00000000   Number         0  qnan.o ABSOLUTE
    ../mathlib/rredf.c                       0x00000000   Number         0  rredf.o ABSOLUTE
    ../mathlib/sinf.c                        0x00000000   Number         0  sinf.o ABSOLUTE
    ../mathlib/sinf.c                        0x00000000   Number         0  sinf_x.o ABSOLUTE
    ../mathlib/sqrt.c                        0x00000000   Number         0  sqrt.o ABSOLUTE
    ../mathlib/sqrt.c                        0x00000000   Number         0  sqrt_x.o ABSOLUTE
    ..\HARDWARE\COMMUNICATE\ANO_DT.c         0x00000000   Number         0  ano_dt.o ABSOLUTE
    ..\HARDWARE\COMMUNICATE\remotedata.c     0x00000000   Number         0  remotedata.o ABSOLUTE
    ..\HARDWARE\CONTROL\altitude.c           0x00000000   Number         0  altitude.o ABSOLUTE
    ..\HARDWARE\CONTROL\control.c            0x00000000   Number         0  control.o ABSOLUTE
    ..\HARDWARE\CONTROL\paramsave.c          0x00000000   Number         0  paramsave.o ABSOLUTE
    ..\HARDWARE\CONTROL\pid.c                0x00000000   Number         0  pid.o ABSOLUTE
    ..\HARDWARE\Drive\src\BMP280\bmp280.c    0x00000000   Number         0  bmp280.o ABSOLUTE
    ..\HARDWARE\Drive\src\delay.c            0x00000000   Number         0  delay.o ABSOLUTE
    ..\HARDWARE\Drive\src\exit.c             0x00000000   Number         0  exit.o ABSOLUTE
    ..\HARDWARE\Drive\src\flash.c            0x00000000   Number         0  flash.o ABSOLUTE
    ..\HARDWARE\Drive\src\iic.c              0x00000000   Number         0  iic.o ABSOLUTE
    ..\HARDWARE\Drive\src\led.c              0x00000000   Number         0  led.o ABSOLUTE
    ..\HARDWARE\Drive\src\motor.c            0x00000000   Number         0  motor.o ABSOLUTE
    ..\HARDWARE\Drive\src\mpu6050.c          0x00000000   Number         0  mpu6050.o ABSOLUTE
    ..\HARDWARE\Drive\src\nvic.c             0x00000000   Number         0  nvic.o ABSOLUTE
    ..\HARDWARE\Drive\src\power.c            0x00000000   Number         0  power.o ABSOLUTE
    ..\HARDWARE\Drive\src\si24r1.c           0x00000000   Number         0  si24r1.o ABSOLUTE
    ..\HARDWARE\Drive\src\spi.c              0x00000000   Number         0  spi.o ABSOLUTE
    ..\HARDWARE\Drive\src\system.c           0x00000000   Number         0  system.o ABSOLUTE
    ..\HARDWARE\Drive\src\tim.c              0x00000000   Number         0  tim.o ABSOLUTE
    ..\HARDWARE\Drive\src\usart.c            0x00000000   Number         0  usart.o ABSOLUTE
    ..\HARDWARE\IMU\filter.c                 0x00000000   Number         0  filter.o ABSOLUTE
    ..\HARDWARE\IMU\imu.c                    0x00000000   Number         0  imu.o ABSOLUTE
    ..\Libraries\CMSIS\Device\ST\STM32F0xx\Source\Templates\arm\startup_stm32f072.s 0x00000000   Number         0  startup_stm32f072.o ABSOLUTE
    ..\Libraries\CMSIS\Device\ST\STM32F0xx\Source\Templates\system_stm32f0xx.c 0x00000000   Number         0  system_stm32f0xx.o ABSOLUTE
    ..\Libraries\STM32F0xx_StdPeriph_Driver\src\stm32f0xx_adc.c 0x00000000   Number         0  stm32f0xx_adc.o ABSOLUTE
    ..\Libraries\STM32F0xx_StdPeriph_Driver\src\stm32f0xx_exti.c 0x00000000   Number         0  stm32f0xx_exti.o ABSOLUTE
    ..\Libraries\STM32F0xx_StdPeriph_Driver\src\stm32f0xx_flash.c 0x00000000   Number         0  stm32f0xx_flash.o ABSOLUTE
    ..\Libraries\STM32F0xx_StdPeriph_Driver\src\stm32f0xx_gpio.c 0x00000000   Number         0  stm32f0xx_gpio.o ABSOLUTE
    ..\Libraries\STM32F0xx_StdPeriph_Driver\src\stm32f0xx_misc.c 0x00000000   Number         0  stm32f0xx_misc.o ABSOLUTE
    ..\Libraries\STM32F0xx_StdPeriph_Driver\src\stm32f0xx_rcc.c 0x00000000   Number         0  stm32f0xx_rcc.o ABSOLUTE
    ..\Libraries\STM32F0xx_StdPeriph_Driver\src\stm32f0xx_spi.c 0x00000000   Number         0  stm32f0xx_spi.o ABSOLUTE
    ..\Libraries\STM32F0xx_StdPeriph_Driver\src\stm32f0xx_syscfg.c 0x00000000   Number         0  stm32f0xx_syscfg.o ABSOLUTE
    ..\Libraries\STM32F0xx_StdPeriph_Driver\src\stm32f0xx_tim.c 0x00000000   Number         0  stm32f0xx_tim.o ABSOLUTE
    ..\Libraries\STM32F0xx_StdPeriph_Driver\src\stm32f0xx_usart.c 0x00000000   Number         0  stm32f0xx_usart.o ABSOLUTE
    ..\\HARDWARE\\COMMUNICATE\\ANO_DT.c      0x00000000   Number         0  ano_dt.o ABSOLUTE
    ..\\HARDWARE\\COMMUNICATE\\remotedata.c  0x00000000   Number         0  remotedata.o ABSOLUTE
    ..\\HARDWARE\\CONTROL\\altitude.c        0x00000000   Number         0  altitude.o ABSOLUTE
    ..\\HARDWARE\\CONTROL\\control.c         0x00000000   Number         0  control.o ABSOLUTE
    ..\\HARDWARE\\CONTROL\\paramsave.c       0x00000000   Number         0  paramsave.o ABSOLUTE
    ..\\HARDWARE\\CONTROL\\pid.c             0x00000000   Number         0  pid.o ABSOLUTE
    ..\\HARDWARE\\Drive\\src\\BMP280\\bmp280.c 0x00000000   Number         0  bmp280.o ABSOLUTE
    ..\\HARDWARE\\Drive\\src\\delay.c        0x00000000   Number         0  delay.o ABSOLUTE
    ..\\HARDWARE\\Drive\\src\\exit.c         0x00000000   Number         0  exit.o ABSOLUTE
    ..\\HARDWARE\\Drive\\src\\flash.c        0x00000000   Number         0  flash.o ABSOLUTE
    ..\\HARDWARE\\Drive\\src\\iic.c          0x00000000   Number         0  iic.o ABSOLUTE
    ..\\HARDWARE\\Drive\\src\\led.c          0x00000000   Number         0  led.o ABSOLUTE
    ..\\HARDWARE\\Drive\\src\\motor.c        0x00000000   Number         0  motor.o ABSOLUTE
    ..\\HARDWARE\\Drive\\src\\mpu6050.c      0x00000000   Number         0  mpu6050.o ABSOLUTE
    ..\\HARDWARE\\Drive\\src\\nvic.c         0x00000000   Number         0  nvic.o ABSOLUTE
    ..\\HARDWARE\\Drive\\src\\power.c        0x00000000   Number         0  power.o ABSOLUTE
    ..\\HARDWARE\\Drive\\src\\si24r1.c       0x00000000   Number         0  si24r1.o ABSOLUTE
    ..\\HARDWARE\\Drive\\src\\spi.c          0x00000000   Number         0  spi.o ABSOLUTE
    ..\\HARDWARE\\Drive\\src\\system.c       0x00000000   Number         0  system.o ABSOLUTE
    ..\\HARDWARE\\Drive\\src\\tim.c          0x00000000   Number         0  tim.o ABSOLUTE
    ..\\HARDWARE\\Drive\\src\\usart.c        0x00000000   Number         0  usart.o ABSOLUTE
    ..\\HARDWARE\\IMU\\filter.c              0x00000000   Number         0  filter.o ABSOLUTE
    ..\\HARDWARE\\IMU\\imu.c                 0x00000000   Number         0  imu.o ABSOLUTE
    ..\\Libraries\\CMSIS\\Device\\ST\\STM32F0xx\\Source\\Templates\\system_stm32f0xx.c 0x00000000   Number         0  system_stm32f0xx.o ABSOLUTE
    ..\\Libraries\\STM32F0xx_StdPeriph_Driver\\src\\stm32f0xx_adc.c 0x00000000   Number         0  stm32f0xx_adc.o ABSOLUTE
    ..\\Libraries\\STM32F0xx_StdPeriph_Driver\\src\\stm32f0xx_exti.c 0x00000000   Number         0  stm32f0xx_exti.o ABSOLUTE
    ..\\Libraries\\STM32F0xx_StdPeriph_Driver\\src\\stm32f0xx_flash.c 0x00000000   Number         0  stm32f0xx_flash.o ABSOLUTE
    ..\\Libraries\\STM32F0xx_StdPeriph_Driver\\src\\stm32f0xx_gpio.c 0x00000000   Number         0  stm32f0xx_gpio.o ABSOLUTE
    ..\\Libraries\\STM32F0xx_StdPeriph_Driver\\src\\stm32f0xx_misc.c 0x00000000   Number         0  stm32f0xx_misc.o ABSOLUTE
    ..\\Libraries\\STM32F0xx_StdPeriph_Driver\\src\\stm32f0xx_rcc.c 0x00000000   Number         0  stm32f0xx_rcc.o ABSOLUTE
    ..\\Libraries\\STM32F0xx_StdPeriph_Driver\\src\\stm32f0xx_spi.c 0x00000000   Number         0  stm32f0xx_spi.o ABSOLUTE
    ..\\Libraries\\STM32F0xx_StdPeriph_Driver\\src\\stm32f0xx_syscfg.c 0x00000000   Number         0  stm32f0xx_syscfg.o ABSOLUTE
    ..\\Libraries\\STM32F0xx_StdPeriph_Driver\\src\\stm32f0xx_tim.c 0x00000000   Number         0  stm32f0xx_tim.o ABSOLUTE
    ..\\Libraries\\STM32F0xx_StdPeriph_Driver\\src\\stm32f0xx_usart.c 0x00000000   Number         0  stm32f0xx_usart.o ABSOLUTE
    dc.s                                     0x00000000   Number         0  dc.o ABSOLUTE
    main.c                                   0x00000000   Number         0  main.o ABSOLUTE
    main.c                                   0x00000000   Number         0  main.o ABSOLUTE
    stm32f0xx_it.c                           0x00000000   Number         0  stm32f0xx_it.o ABSOLUTE
    stm32f0xx_it.c                           0x00000000   Number         0  stm32f0xx_it.o ABSOLUTE
    RESET                                    0x08000000   Section      192  startup_stm32f072.o(RESET)
    !!!main                                  0x080000c0   Section        8  __main.o(!!!main)
    !!!scatter                               0x080000c8   Section       60  __scatter.o(!!!scatter)
    !!handler_copy                           0x08000104   Section       26  __scatter_copy.o(!!handler_copy)
    !!handler_zi                             0x08000120   Section       28  __scatter_zi.o(!!handler_zi)
    .ARM.Collect$$libinit$$00000000          0x0800013c   Section        2  libinit.o(.ARM.Collect$$libinit$$00000000)
    .ARM.Collect$$libinit$$00000002          0x0800013e   Section        0  libinit2.o(.ARM.Collect$$libinit$$00000002)
    .ARM.Collect$$libinit$$00000004          0x0800013e   Section        0  libinit2.o(.ARM.Collect$$libinit$$00000004)
    .ARM.Collect$$libinit$$0000000A          0x0800013e   Section        0  libinit2.o(.ARM.Collect$$libinit$$0000000A)
    .ARM.Collect$$libinit$$0000000C          0x0800013e   Section        0  libinit2.o(.ARM.Collect$$libinit$$0000000C)
    .ARM.Collect$$libinit$$0000000E          0x0800013e   Section        0  libinit2.o(.ARM.Collect$$libinit$$0000000E)
    .ARM.Collect$$libinit$$00000011          0x0800013e   Section        0  libinit2.o(.ARM.Collect$$libinit$$00000011)
    .ARM.Collect$$libinit$$00000013          0x0800013e   Section        0  libinit2.o(.ARM.Collect$$libinit$$00000013)
    .ARM.Collect$$libinit$$00000015          0x0800013e   Section        0  libinit2.o(.ARM.Collect$$libinit$$00000015)
    .ARM.Collect$$libinit$$00000017          0x0800013e   Section        0  libinit2.o(.ARM.Collect$$libinit$$00000017)
    .ARM.Collect$$libinit$$00000019          0x0800013e   Section        0  libinit2.o(.ARM.Collect$$libinit$$00000019)
    .ARM.Collect$$libinit$$0000001B          0x0800013e   Section        0  libinit2.o(.ARM.Collect$$libinit$$0000001B)
    .ARM.Collect$$libinit$$0000001D          0x0800013e   Section        0  libinit2.o(.ARM.Collect$$libinit$$0000001D)
    .ARM.Collect$$libinit$$0000001F          0x0800013e   Section        0  libinit2.o(.ARM.Collect$$libinit$$0000001F)
    .ARM.Collect$$libinit$$00000021          0x0800013e   Section        0  libinit2.o(.ARM.Collect$$libinit$$00000021)
    .ARM.Collect$$libinit$$00000023          0x0800013e   Section        0  libinit2.o(.ARM.Collect$$libinit$$00000023)
    .ARM.Collect$$libinit$$00000025          0x0800013e   Section        0  libinit2.o(.ARM.Collect$$libinit$$00000025)
    .ARM.Collect$$libinit$$0000002C          0x0800013e   Section        0  libinit2.o(.ARM.Collect$$libinit$$0000002C)
    .ARM.Collect$$libinit$$0000002E          0x0800013e   Section        0  libinit2.o(.ARM.Collect$$libinit$$0000002E)
    .ARM.Collect$$libinit$$00000030          0x0800013e   Section        0  libinit2.o(.ARM.Collect$$libinit$$00000030)
    .ARM.Collect$$libinit$$00000032          0x0800013e   Section        0  libinit2.o(.ARM.Collect$$libinit$$00000032)
    .ARM.Collect$$libinit$$00000033          0x0800013e   Section        2  libinit2.o(.ARM.Collect$$libinit$$00000033)
    .ARM.Collect$$libshutdown$$00000000      0x08000140   Section        2  libshutdown.o(.ARM.Collect$$libshutdown$$00000000)
    .ARM.Collect$$libshutdown$$00000002      0x08000142   Section        0  libshutdown2.o(.ARM.Collect$$libshutdown$$00000002)
    .ARM.Collect$$libshutdown$$00000004      0x08000142   Section        0  libshutdown2.o(.ARM.Collect$$libshutdown$$00000004)
    .ARM.Collect$$libshutdown$$00000007      0x08000142   Section        0  libshutdown2.o(.ARM.Collect$$libshutdown$$00000007)
    .ARM.Collect$$libshutdown$$0000000A      0x08000142   Section        0  libshutdown2.o(.ARM.Collect$$libshutdown$$0000000A)
    .ARM.Collect$$libshutdown$$0000000C      0x08000142   Section        0  libshutdown2.o(.ARM.Collect$$libshutdown$$0000000C)
    .ARM.Collect$$libshutdown$$0000000F      0x08000142   Section        0  libshutdown2.o(.ARM.Collect$$libshutdown$$0000000F)
    .ARM.Collect$$libshutdown$$00000010      0x08000142   Section        2  libshutdown2.o(.ARM.Collect$$libshutdown$$00000010)
    .ARM.Collect$$rtentry$$00000000          0x08000144   Section        0  __rtentry.o(.ARM.Collect$$rtentry$$00000000)
    .ARM.Collect$$rtentry$$00000002          0x08000144   Section        0  __rtentry2.o(.ARM.Collect$$rtentry$$00000002)
    .ARM.Collect$$rtentry$$00000004          0x08000144   Section        6  __rtentry4.o(.ARM.Collect$$rtentry$$00000004)
    .ARM.Collect$$rtentry$$00000009          0x0800014a   Section        0  __rtentry2.o(.ARM.Collect$$rtentry$$00000009)
    .ARM.Collect$$rtentry$$0000000A          0x0800014a   Section        4  __rtentry2.o(.ARM.Collect$$rtentry$$0000000A)
    .ARM.Collect$$rtentry$$0000000C          0x0800014e   Section        0  __rtentry2.o(.ARM.Collect$$rtentry$$0000000C)
    .ARM.Collect$$rtentry$$0000000D          0x0800014e   Section        8  __rtentry2.o(.ARM.Collect$$rtentry$$0000000D)
    .ARM.Collect$$rtexit$$00000000           0x08000156   Section        2  rtexit.o(.ARM.Collect$$rtexit$$00000000)
    .ARM.Collect$$rtexit$$00000002           0x08000158   Section        0  rtexit2.o(.ARM.Collect$$rtexit$$00000002)
    .ARM.Collect$$rtexit$$00000003           0x08000158   Section        4  rtexit2.o(.ARM.Collect$$rtexit$$00000003)
    .ARM.Collect$$rtexit$$00000004           0x0800015c   Section        6  rtexit2.o(.ARM.Collect$$rtexit$$00000004)
    .emb_text                                0x08000164   Section       56  rt_memcpy.o(.emb_text)
    .text                                    0x0800019c   Section      116  startup_stm32f072.o(.text)
    .text                                    0x08000210   Section        0  llmul.o(.text)
    .text                                    0x08000240   Section        0  llsdiv.o(.text)
    .text                                    0x080002b0   Section        0  rt_memcpy.o(.text)
    .text                                    0x08000332   Section      346  aeabi_sdiv.o(.text)
    .text                                    0x0800048c   Section        0  heapauxi.o(.text)
    .text                                    0x08000494   Section        0  d2f.o(.text)
    .text                                    0x08000510   Section        0  daddsub.o(.text)
    _dadd1                                   0x08000511   Thumb Code   290  daddsub.o(.text)
    _dsub1                                   0x08000633   Thumb Code   470  daddsub.o(.text)
    .text                                    0x08000868   Section        0  ddiv.o(.text)
    .text                                    0x08000cb0   Section        0  dflti.o(.text)
    .text                                    0x08000d08   Section        0  dmul.o(.text)
    .text                                    0x08000f50   Section        0  f2d.o(.text)
    .text                                    0x08000fa4   Section        0  fdiv.o(.text)
    .text                                    0x08001104   Section        0  ffixi.o(.text)
    .text                                    0x08001150   Section        0  ffixui.o(.text)
    .text                                    0x08001180   Section        0  fflti.o(.text)
    .text                                    0x080011e0   Section        0  fscalbn.o(.text)
    .text                                    0x08001224   Section        0  lludiv.o(.text)
    .text                                    0x08001326   Section        0  _rserrno.o(.text)
    .text                                    0x0800133c   Section        0  dscalbn.o(.text)
    .text                                    0x0800139c   Section        0  fcmpin.o(.text)
    .text                                    0x08001400   Section        0  frnd.o(.text)
    .text                                    0x08001480   Section        8  rt_errno_addr_intlibspace.o(.text)
    .text                                    0x08001488   Section        0  cmpret.o(.text)
    .text                                    0x080014b8   Section        0  dcmpin.o(.text)
    .text                                    0x08001548   Section        0  dsqrt.o(.text)
    .text                                    0x08001648   Section        0  fnan2.o(.text)
    .text                                    0x08001658   Section        8  libspace.o(.text)
    .text                                    0x08001660   Section       62  sys_stackheap_outer.o(.text)
    .text                                    0x0800169e   Section        0  exit.o(.text)
    .text                                    0x080016b0   Section        0  dnan2.o(.text)
    .text                                    0x080016c4   Section        0  retnan.o(.text)
    .text                                    0x08001724   Section        0  sys_exit.o(.text)
    .text                                    0x08001730   Section        2  use_no_semi.o(.text)
    .text                                    0x08001732   Section        0  indicate_semi.o(.text)
    i.ADC_ChannelConfig                      0x08001732   Section        0  stm32f0xx_adc.o(i.ADC_ChannelConfig)
    i.ADC_Cmd                                0x0800173c   Section        0  stm32f0xx_adc.o(i.ADC_Cmd)
    i.ADC_DeInit                             0x08001750   Section        0  stm32f0xx_adc.o(i.ADC_DeInit)
    i.ADC_GetCalibrationFactor               0x08001770   Section        0  stm32f0xx_adc.o(i.ADC_GetCalibrationFactor)
    i.ADC_GetConversionValue                 0x0800179e   Section        0  stm32f0xx_adc.o(i.ADC_GetConversionValue)
    i.ADC_GetFlagStatus                      0x080017a4   Section        0  stm32f0xx_adc.o(i.ADC_GetFlagStatus)
    i.ADC_Init                               0x080017c0   Section        0  stm32f0xx_adc.o(i.ADC_Init)
    i.ADC_StartOfConversion                  0x080017ec   Section        0  stm32f0xx_adc.o(i.ADC_StartOfConversion)
    i.ADC_StructInit                         0x080017f6   Section        0  stm32f0xx_adc.o(i.ADC_StructInit)
    i.ANO_DT_Data_Exchange                   0x08001808   Section        0  ano_dt.o(i.ANO_DT_Data_Exchange)
    i.ANO_DT_Data_Receive_Anl                0x08001af0   Section        0  ano_dt.o(i.ANO_DT_Data_Receive_Anl)
    i.ANO_DT_Data_Receive_Prepare            0x08001f20   Section        0  ano_dt.o(i.ANO_DT_Data_Receive_Prepare)
    i.ANO_DT_Send_ALT                        0x08001fb8   Section        0  ano_dt.o(i.ANO_DT_Send_ALT)
    i.ANO_DT_Send_Check                      0x08002028   Section        0  ano_dt.o(i.ANO_DT_Send_Check)
    ANO_DT_Send_Check                        0x08002029   Thumb Code    52  ano_dt.o(i.ANO_DT_Send_Check)
    i.ANO_DT_Send_Data                       0x08002060   Section        0  ano_dt.o(i.ANO_DT_Send_Data)
    i.ANO_DT_Send_MotoPWM                    0x08002068   Section        0  ano_dt.o(i.ANO_DT_Send_MotoPWM)
    i.ANO_DT_Send_PID                        0x08002100   Section        0  ano_dt.o(i.ANO_DT_Send_PID)
    i.ANO_DT_Send_RCData                     0x08002220   Section        0  ano_dt.o(i.ANO_DT_Send_RCData)
    i.ANO_DT_Send_Senser                     0x080022d0   Section        0  ano_dt.o(i.ANO_DT_Send_Senser)
    i.ANO_DT_Send_Status                     0x08002370   Section        0  ano_dt.o(i.ANO_DT_Send_Status)
    i.Altitude_Combine                       0x08002418   Section        0  altitude.o(i.Altitude_Combine)
    i.Altitude_Control                       0x0800260c   Section        0  altitude.o(i.Altitude_Control)
    i.Aver_Filter                            0x08002628   Section        0  filter.o(i.Aver_Filter)
    i.BATT_GetVoltage                        0x08002690   Section        0  power.o(i.BATT_GetVoltage)
    i.BATT_Init                              0x080026d0   Section        0  power.o(i.BATT_Init)
    i.Control                                0x08002750   Section        0  control.o(i.Control)
    i.Deblocking                             0x0800299c   Section        0  remotedata.o(i.Deblocking)
    i.DefaultParams                          0x08002a34   Section        0  paramsave.o(i.DefaultParams)
    i.DefaultParams_WriteFlash               0x08002a9c   Section        0  paramsave.o(i.DefaultParams_WriteFlash)
    i.Delay_Init                             0x08002ab8   Section        0  delay.o(i.Delay_Init)
    i.Delay_ms                               0x08002ae8   Section        0  delay.o(i.Delay_ms)
    i.Delay_us                               0x08002b1c   Section        0  delay.o(i.Delay_us)
    i.EXTI0_1_IRQHandler                     0x08002b50   Section        0  stm32f0xx_it.o(i.EXTI0_1_IRQHandler)
    i.EXTI_ClearITPendingBit                 0x08002bbc   Section        0  stm32f0xx_exti.o(i.EXTI_ClearITPendingBit)
    i.EXTI_GetITStatus                       0x08002bc8   Section        0  stm32f0xx_exti.o(i.EXTI_GetITStatus)
    i.EXTI_Init                              0x08002bdc   Section        0  stm32f0xx_exti.o(i.EXTI_Init)
    i.Exit_Init                              0x08002c48   Section        0  exit.o(i.Exit_Init)
    i.FLASH_ErasePage                        0x08002c8c   Section        0  stm32f0xx_flash.o(i.FLASH_ErasePage)
    i.FLASH_GetStatus                        0x08002cc4   Section        0  stm32f0xx_flash.o(i.FLASH_GetStatus)
    i.FLASH_Lock                             0x08002cec   Section        0  stm32f0xx_flash.o(i.FLASH_Lock)
    i.FLASH_ProgramWord                      0x08002cfc   Section        0  stm32f0xx_flash.o(i.FLASH_ProgramWord)
    i.FLASH_Unlock                           0x08002d48   Section        0  stm32f0xx_flash.o(i.FLASH_Unlock)
    i.FLASH_WaitForLastOperation             0x08002d68   Section        0  stm32f0xx_flash.o(i.FLASH_WaitForLastOperation)
    i.FindPos                                0x08002d8a   Section        0  filter.o(i.FindPos)
    i.GPIO_Init                              0x08002de0   Section        0  stm32f0xx_gpio.o(i.GPIO_Init)
    i.GPIO_PinAFConfig                       0x08002e50   Section        0  stm32f0xx_gpio.o(i.GPIO_PinAFConfig)
    i.GPIO_ReadInputDataBit                  0x08002e70   Section        0  stm32f0xx_gpio.o(i.GPIO_ReadInputDataBit)
    i.GPIO_ResetBits                         0x08002e7e   Section        0  stm32f0xx_gpio.o(i.GPIO_ResetBits)
    i.GPIO_SetBits                           0x08002e82   Section        0  stm32f0xx_gpio.o(i.GPIO_SetBits)
    i.Get_BatteryAdc                         0x08002e88   Section        0  power.o(i.Get_BatteryAdc)
    i.HardFault_Handler                      0x08002ea4   Section        0  stm32f0xx_it.o(i.HardFault_Handler)
    i.IIC_ADD_read                           0x08002ea6   Section        0  iic.o(i.IIC_ADD_read)
    i.IIC_Ack                                0x08002ee4   Section        0  iic.o(i.IIC_Ack)
    i.IIC_GPIO_Init                          0x08002f20   Section        0  iic.o(i.IIC_GPIO_Init)
    i.IIC_NAck                               0x08002f54   Section        0  iic.o(i.IIC_NAck)
    i.IIC_ReadByte                           0x08002f90   Section        0  iic.o(i.IIC_ReadByte)
    i.IIC_ReadByteFromSlave                  0x08002ff0   Section        0  iic.o(i.IIC_ReadByteFromSlave)
    i.IIC_ReadMultByteFromSlave              0x0800303c   Section        0  iic.o(i.IIC_ReadMultByteFromSlave)
    i.IIC_SendByte                           0x08003098   Section        0  iic.o(i.IIC_SendByte)
    i.IIC_Start                              0x080030f4   Section        0  iic.o(i.IIC_Start)
    i.IIC_Stop                               0x08003130   Section        0  iic.o(i.IIC_Stop)
    i.IIC_WaitAck                            0x0800316c   Section        0  iic.o(i.IIC_WaitAck)
    i.IIC_WriteByteToSlave                   0x080031c4   Section        0  iic.o(i.IIC_WriteByteToSlave)
    i.IMUupdate                              0x08003208   Section        0  imu.o(i.IMUupdate)
    i.LED_Init                               0x08003678   Section        0  led.o(i.LED_Init)
    i.LED_Run                                0x080036b0   Section        0  led.o(i.LED_Run)
    i.LowVoltage_Alarm                       0x080036dc   Section        0  power.o(i.LowVoltage_Alarm)
    i.MOTOR_Init                             0x08003744   Section        0  motor.o(i.MOTOR_Init)
    i.MPU6050_Init                           0x08003810   Section        0  mpu6050.o(i.MPU6050_Init)
    i.MPU6050_OffSet                         0x08003868   Section        0  mpu6050.o(i.MPU6050_OffSet)
    i.MPU6050_Offset                         0x080038f0   Section        0  mpu6050.o(i.MPU6050_Offset)
    i.MPU6050_Read                           0x080039d0   Section        0  mpu6050.o(i.MPU6050_Read)
    i.MPU6050_ReadMultBytes                  0x080039e4   Section        0  mpu6050.o(i.MPU6050_ReadMultBytes)
    i.MPU6050_WriteByte                      0x080039fa   Section        0  mpu6050.o(i.MPU6050_WriteByte)
    i.Moto_Pwm                               0x08003a10   Section        0  motor.o(i.Moto_Pwm)
    i.NMI_Handler                            0x08003a5c   Section        0  stm32f0xx_it.o(i.NMI_Handler)
    i.NVIC_Init                              0x08003a80   Section        0  stm32f0xx_misc.o(i.NVIC_Init)
    i.NvicConfig                             0x08003ad0   Section        0  nvic.o(i.NvicConfig)
    i.PID_Postion_Cal                        0x08003b0c   Section        0  pid.o(i.PID_Postion_Cal)
    i.PID_ReadFlash                          0x08003be0   Section        0  paramsave.o(i.PID_ReadFlash)
    i.PID_WriteFlash                         0x08003c64   Section        0  paramsave.o(i.PID_WriteFlash)
    i.ParamsToTable                          0x08003c80   Section        0  paramsave.o(i.ParamsToTable)
    i.PendSV_Handler                         0x08003e34   Section        0  stm32f0xx_it.o(i.PendSV_Handler)
    i.PidParameter_init                      0x08003e38   Section        0  pid.o(i.PidParameter_init)
    i.Prepare_Data                           0x08003ecc   Section        0  imu.o(i.Prepare_Data)
    i.QuiteSort                              0x08004008   Section        0  filter.o(i.QuiteSort)
    i.RCC_AHBPeriphClockCmd                  0x08004034   Section        0  stm32f0xx_rcc.o(i.RCC_AHBPeriphClockCmd)
    i.RCC_APB1PeriphClockCmd                 0x0800404c   Section        0  stm32f0xx_rcc.o(i.RCC_APB1PeriphClockCmd)
    i.RCC_APB1PeriphResetCmd                 0x08004064   Section        0  stm32f0xx_rcc.o(i.RCC_APB1PeriphResetCmd)
    i.RCC_APB2PeriphClockCmd                 0x0800407c   Section        0  stm32f0xx_rcc.o(i.RCC_APB2PeriphClockCmd)
    i.RCC_APB2PeriphResetCmd                 0x08004094   Section        0  stm32f0xx_rcc.o(i.RCC_APB2PeriphResetCmd)
    i.RCC_ClearITPendingBit                  0x080040ac   Section        0  stm32f0xx_rcc.o(i.RCC_ClearITPendingBit)
    i.RCC_GetClocksFreq                      0x080040b8   Section        0  stm32f0xx_rcc.o(i.RCC_GetClocksFreq)
    i.RCC_GetITStatus                        0x08004230   Section        0  stm32f0xx_rcc.o(i.RCC_GetITStatus)
    i.RCC_HSEConfig                          0x08004244   Section        0  stm32f0xx_rcc.o(i.RCC_HSEConfig)
    i.RCC_ITConfig                           0x08004254   Section        0  stm32f0xx_rcc.o(i.RCC_ITConfig)
    i.Remote_Data_ReceiveAnalysis            0x0800426c   Section        0  remotedata.o(i.Remote_Data_ReceiveAnalysis)
    i.SI24R1_Check                           0x08004304   Section        0  si24r1.o(i.SI24R1_Check)
    i.SI24R1_Config                          0x0800432c   Section        0  si24r1.o(i.SI24R1_Config)
    i.SI24R1_Init                            0x0800438c   Section        0  si24r1.o(i.SI24R1_Init)
    i.SI24R1_Read_Buf                        0x080043f8   Section        0  si24r1.o(i.SI24R1_Read_Buf)
    i.SI24R1_RxPacket                        0x08004432   Section        0  si24r1.o(i.SI24R1_RxPacket)
    i.SI24R1_SingalCheck                     0x08004448   Section        0  remotedata.o(i.SI24R1_SingalCheck)
    i.SI24R1_TxPacket                        0x08004460   Section        0  si24r1.o(i.SI24R1_TxPacket)
    i.SI24R1_Write_Buf                       0x080044b4   Section        0  si24r1.o(i.SI24R1_Write_Buf)
    i.SI24R1_read_reg                        0x080044ee   Section        0  si24r1.o(i.SI24R1_read_reg)
    i.SI24R1_testConnection                  0x08004518   Section        0  si24r1.o(i.SI24R1_testConnection)
    i.SI24R1_write_reg                       0x08004570   Section        0  si24r1.o(i.SI24R1_write_reg)
    i.SI24R1set_Mode                         0x0800459c   Section        0  si24r1.o(i.SI24R1set_Mode)
    i.SPI1_WriteReadByte                     0x080045d8   Section        0  spi.o(i.SPI1_WriteReadByte)
    i.SPI_Cmd                                0x08004628   Section        0  stm32f0xx_spi.o(i.SPI_Cmd)
    i.SPI_GPIO_Init                          0x0800463c   Section        0  spi.o(i.SPI_GPIO_Init)
    i.SPI_I2S_DeInit                         0x080046f4   Section        0  stm32f0xx_spi.o(i.SPI_I2S_DeInit)
    i.SPI_I2S_GetFlagStatus                  0x08004734   Section        0  stm32f0xx_spi.o(i.SPI_I2S_GetFlagStatus)
    i.SPI_Init                               0x08004744   Section        0  stm32f0xx_spi.o(i.SPI_Init)
    i.SPI_ReceiveData8                       0x08004798   Section        0  stm32f0xx_spi.o(i.SPI_ReceiveData8)
    i.SPI_RxFIFOThresholdConfig              0x0800479c   Section        0  stm32f0xx_spi.o(i.SPI_RxFIFOThresholdConfig)
    i.SPI_SendData8                          0x080047b0   Section        0  stm32f0xx_spi.o(i.SPI_SendData8)
    i.STMFLASH_Read                          0x080047b4   Section        0  flash.o(i.STMFLASH_Read)
    i.STMFLASH_Write                         0x080047c8   Section        0  flash.o(i.STMFLASH_Write)
    i.SVC_Handler                            0x08004838   Section        0  stm32f0xx_it.o(i.SVC_Handler)
    i.SYSCFG_EXTILineConfig                  0x0800483c   Section        0  stm32f0xx_syscfg.o(i.SYSCFG_EXTILineConfig)
    i.SendToRemote                           0x08004864   Section        0  remotedata.o(i.SendToRemote)
    i.SetSysClock                            0x08004940   Section        0  system_stm32f0xx.o(i.SetSysClock)
    SetSysClock                              0x08004941   Thumb Code   142  system_stm32f0xx.o(i.SetSysClock)
    i.SortAver_FilterXYZ                     0x080049d8   Section        0  filter.o(i.SortAver_FilterXYZ)
    i.SysTick_CLKSourceConfig                0x08004ad0   Section        0  stm32f0xx_misc.o(i.SysTick_CLKSourceConfig)
    i.SysTick_Handler                        0x08004ae8   Section        0  stm32f0xx_it.o(i.SysTick_Handler)
    i.SystemInit                             0x08004af8   Section        0  system_stm32f0xx.o(i.SystemInit)
    i.System_Init                            0x08004b58   Section        0  system.o(i.System_Init)
    i.TIM2_IRQHandler                        0x08004ba8   Section        0  stm32f0xx_it.o(i.TIM2_IRQHandler)
    i.TIM_ClearITPendingBit                  0x08004c48   Section        0  stm32f0xx_tim.o(i.TIM_ClearITPendingBit)
    i.TIM_Cmd                                0x08004c4e   Section        0  stm32f0xx_tim.o(i.TIM_Cmd)
    i.TIM_CtrlPWMOutputs                     0x08004c62   Section        0  stm32f0xx_tim.o(i.TIM_CtrlPWMOutputs)
    i.TIM_GetITStatus                        0x08004c7a   Section        0  stm32f0xx_tim.o(i.TIM_GetITStatus)
    i.TIM_ITConfig                           0x08004c92   Section        0  stm32f0xx_tim.o(i.TIM_ITConfig)
    i.TIM_Init                               0x08004ca4   Section        0  tim.o(i.TIM_Init)
    i.TIM_OC1Init                            0x08004ce0   Section        0  stm32f0xx_tim.o(i.TIM_OC1Init)
    i.TIM_OC2Init                            0x08004d5c   Section        0  stm32f0xx_tim.o(i.TIM_OC2Init)
    i.TIM_OC3Init                            0x08004dec   Section        0  stm32f0xx_tim.o(i.TIM_OC3Init)
    i.TIM_OC4Init                            0x08004e74   Section        0  stm32f0xx_tim.o(i.TIM_OC4Init)
    i.TIM_TimeBaseInit                       0x08004ed8   Section        0  stm32f0xx_tim.o(i.TIM_TimeBaseInit)
    i.TableToParams                          0x08004f4c   Section        0  paramsave.o(i.TableToParams)
    i.Task_Schedule                          0x08005100   Section        0  system.o(i.Task_Schedule)
    i.USART1_IRQHandler                      0x080051bc   Section        0  stm32f0xx_it.o(i.USART1_IRQHandler)
    i.USART_ClearFlag                        0x0800523c   Section        0  stm32f0xx_usart.o(i.USART_ClearFlag)
    i.USART_ClearITPendingBit                0x08005240   Section        0  stm32f0xx_usart.o(i.USART_ClearITPendingBit)
    i.USART_Cmd                              0x0800524a   Section        0  stm32f0xx_usart.o(i.USART_Cmd)
    i.USART_GetFlagStatus                    0x0800525e   Section        0  stm32f0xx_usart.o(i.USART_GetFlagStatus)
    i.USART_GetITStatus                      0x0800526c   Section        0  stm32f0xx_usart.o(i.USART_GetITStatus)
    i.USART_ITConfig                         0x080052a4   Section        0  stm32f0xx_usart.o(i.USART_ITConfig)
    i.USART_Init                             0x080052d0   Section        0  stm32f0xx_usart.o(i.USART_Init)
    i.USART_SendData                         0x08005378   Section        0  stm32f0xx_usart.o(i.USART_SendData)
    i.USART_init                             0x08005380   Section        0  usart.o(i.USART_init)
    i.Yaw_Carefree                           0x08005404   Section        0  control.o(i.Yaw_Carefree)
    i.__ARM_common_ll_muluu                  0x08005464   Section        0  rredf.o(i.__ARM_common_ll_muluu)
    i.__ARM_fpclassify                       0x08005498   Section        0  fpclassify.o(i.__ARM_fpclassify)
    i.__ARM_fpclassifyf                      0x080054c4   Section        0  fpclassifyf.o(i.__ARM_fpclassifyf)
    i.__kernel_poly                          0x080054e6   Section        0  poly.o(i.__kernel_poly)
    i.__mathlib_dbl_divzero                  0x08005594   Section        0  dunder.o(i.__mathlib_dbl_divzero)
    i.__mathlib_dbl_infnan                   0x080055a8   Section        0  dunder.o(i.__mathlib_dbl_infnan)
    i.__mathlib_dbl_infnan2                  0x080055b2   Section        0  dunder.o(i.__mathlib_dbl_infnan2)
    i.__mathlib_dbl_invalid                  0x080055ba   Section        0  dunder.o(i.__mathlib_dbl_invalid)
    i.__mathlib_dbl_overflow                 0x080055cc   Section        0  dunder.o(i.__mathlib_dbl_overflow)
    i.__mathlib_dbl_underflow                0x080055e0   Section        0  dunder.o(i.__mathlib_dbl_underflow)
    i.__mathlib_flt_infnan                   0x080055f4   Section        0  funder.o(i.__mathlib_flt_infnan)
    i.__mathlib_flt_invalid                  0x080055fe   Section        0  funder.o(i.__mathlib_flt_invalid)
    i.__mathlib_flt_underflow                0x0800560a   Section        0  funder.o(i.__mathlib_flt_underflow)
    i.__mathlib_rredf2                       0x08005618   Section        0  rredf.o(i.__mathlib_rredf2)
    i.asin                                   0x08005798   Section        0  asin.o(i.asin)
    i.atan                                   0x08005a0c   Section        0  atan.o(i.atan)
    i.atan2                                  0x08005c28   Section        0  atan2.o(i.atan2)
    i.bmp280CompensateP                      0x08005da0   Section        0  bmp280.o(i.bmp280CompensateP)
    bmp280CompensateP                        0x08005da1   Thumb Code   326  bmp280.o(i.bmp280CompensateP)
    i.bmp280GetData                          0x08005ef4   Section        0  bmp280.o(i.bmp280GetData)
    i.bmp280Init                             0x08005fd0   Section        0  bmp280.o(i.bmp280Init)
    i.bmp280PressureToAltitude               0x08006048   Section        0  bmp280.o(i.bmp280PressureToAltitude)
    bmp280PressureToAltitude                 0x08006049   Thumb Code    68  bmp280.o(i.bmp280PressureToAltitude)
    i.cosf                                   0x080060a4   Section        0  cosf.o(i.cosf)
    i.inertial_filter_correct                0x0800621c   Section        0  altitude.o(i.inertial_filter_correct)
    inertial_filter_correct                  0x0800621d   Thumb Code    98  altitude.o(i.inertial_filter_correct)
    i.invSqrt                                0x08006284   Section        0  imu.o(i.invSqrt)
    invSqrt                                  0x08006285   Thumb Code    46  imu.o(i.invSqrt)
    i.main                                   0x080062b8   Section        0  main.o(i.main)
    i.pow                                    0x080062c4   Section        0  pow.o(i.pow)
    i.sinf                                   0x08006cc0   Section        0  sinf.o(i.sinf)
    i.sqrt                                   0x08006e44   Section        0  sqrt.o(i.sqrt)
    i.usart_send                             0x08006e8c   Section        0  usart.o(i.usart_send)
    x$fpl$drleqf                             0x08006ebc   Section      104  drlef.o(x$fpl$drleqf)
    x$fpl$fadd                               0x08006f24   Section      140  faddsub.o(x$fpl$fadd)
    _fadd1                                   0x08006f31   Thumb Code     0  faddsub.o(x$fpl$fadd)
    x$fpl$fleqf                              0x08006fb0   Section       84  flef.o(x$fpl$fleqf)
    x$fpl$fmul                               0x08007004   Section      176  fmul.o(x$fpl$fmul)
    x$fpl$frleqf                             0x080070b4   Section       88  frlef.o(x$fpl$frleqf)
    x$fpl$frsb                               0x0800710c   Section       24  faddsub.o(x$fpl$frsb)
    x$fpl$fsub                               0x08007124   Section      208  faddsub.o(x$fpl$fsub)
    _fsub1                                   0x08007131   Thumb Code     0  faddsub.o(x$fpl$fsub)
    .constdata                               0x080071f4   Section       36  imu.o(.constdata)
    x$fpl$usenofp                            0x080071f4   Section        0  usenofp.o(x$fpl$usenofp)
    .constdata                               0x08007218   Section      128  ddiv.o(.constdata)
    ddiv_reciptbl                            0x08007218   Data         128  ddiv.o(.constdata)
    .constdata                               0x08007298   Section       64  fdiv.o(.constdata)
    fdiv_tab                                 0x08007298   Data          64  fdiv.o(.constdata)
    .constdata                               0x080072d8   Section       80  asin.o(.constdata)
    pS                                       0x080072d8   Data          48  asin.o(.constdata)
    qS                                       0x08007308   Data          32  asin.o(.constdata)
    .constdata                               0x08007328   Section      136  pow.o(.constdata)
    bp                                       0x08007328   Data          16  pow.o(.constdata)
    dp_h                                     0x08007338   Data          16  pow.o(.constdata)
    dp_l                                     0x08007348   Data          16  pow.o(.constdata)
    L                                        0x08007358   Data          48  pow.o(.constdata)
    P                                        0x08007388   Data          40  pow.o(.constdata)
    .constdata                               0x080073b0   Section      152  atan.o(.constdata)
    atanhi                                   0x080073b0   Data          32  atan.o(.constdata)
    atanlo                                   0x080073d0   Data          32  atan.o(.constdata)
    aTodd                                    0x080073f0   Data          40  atan.o(.constdata)
    aTeven                                   0x08007418   Data          48  atan.o(.constdata)
    .constdata                               0x08007448   Section        8  qnan.o(.constdata)
    .constdata                               0x08007450   Section       32  rredf.o(.constdata)
    twooverpi                                0x08007450   Data          32  rredf.o(.constdata)
    .data                                    0x20000000   Section       22  stm32f0xx_it.o(.data)
    ms2                                      0x20000008   Data           2  stm32f0xx_it.o(.data)
    ms5                                      0x2000000a   Data           2  stm32f0xx_it.o(.data)
    ms10                                     0x2000000c   Data           2  stm32f0xx_it.o(.data)
    ms50ms                                   0x2000000e   Data           2  stm32f0xx_it.o(.data)
    ms100                                    0x20000010   Data           2  stm32f0xx_it.o(.data)
    ms200                                    0x20000012   Data           2  stm32f0xx_it.o(.data)
    ms400                                    0x20000014   Data           2  stm32f0xx_it.o(.data)
    .data                                    0x20000016   Section        4  delay.o(.data)
    D_us                                     0x20000016   Data           1  delay.o(.data)
    D_ms                                     0x20000018   Data           2  delay.o(.data)
    .data                                    0x2000001c   Section        4  delay.o(.data)
    .data                                    0x20000020   Section        1  led.o(.data)
    .data                                    0x20000021   Section        1  led.o(.data)
    flag                                     0x20000021   Data           1  led.o(.data)
    .data                                    0x20000024   Section       40  mpu6050.o(.data)
    cnt_a                                    0x20000026   Data           2  mpu6050.o(.data)
    tempgx                                   0x20000028   Data           4  mpu6050.o(.data)
    tempgy                                   0x2000002c   Data           4  mpu6050.o(.data)
    tempgz                                   0x20000030   Data           4  mpu6050.o(.data)
    .data                                    0x2000004c   Section       32  imu.o(.data)
    IIR_mode                                 0x2000004d   Data           1  imu.o(.data)
    .data                                    0x2000006c   Section       14  filter.o(.data)
    cnt                                      0x2000006c   Data           1  filter.o(.data)
    flag                                     0x2000006d   Data           1  filter.o(.data)
    cnt                                      0x2000006e   Data           1  filter.o(.data)
    flag                                     0x2000006f   Data           1  filter.o(.data)
    cnt                                      0x20000070   Data           1  filter.o(.data)
    flag                                     0x20000071   Data           1  filter.o(.data)
    cnt                                      0x20000072   Data           1  filter.o(.data)
    flag                                     0x20000073   Data           1  filter.o(.data)
    cnt                                      0x20000074   Data           1  filter.o(.data)
    flag                                     0x20000075   Data           1  filter.o(.data)
    cnt                                      0x20000076   Data           1  filter.o(.data)
    flag                                     0x20000077   Data           1  filter.o(.data)
    cnt                                      0x20000078   Data           1  filter.o(.data)
    flag                                     0x20000079   Data           1  filter.o(.data)
    .data                                    0x2000007c   Section       24  control.o(.data)
    YAW                                      0x20000080   Data           2  control.o(.data)
    .data                                    0x20000094   Section        9  ano_dt.o(.data)
    status_cnt                               0x20000095   Data           1  ano_dt.o(.data)
    senser_cnt                               0x20000096   Data           1  ano_dt.o(.data)
    rcdata_cnt                               0x20000097   Data           1  ano_dt.o(.data)
    motopwm_cnt                              0x20000098   Data           1  ano_dt.o(.data)
    power_cnt                                0x20000099   Data           1  ano_dt.o(.data)
    _data_len                                0x2000009a   Data           1  ano_dt.o(.data)
    _data_cnt                                0x2000009b   Data           1  ano_dt.o(.data)
    state                                    0x2000009c   Data           1  ano_dt.o(.data)
    .data                                    0x2000009e   Section        8  remotedata.o(.data)
    Pre_mode                                 0x2000009e   Data           1  remotedata.o(.data)
    PreDataID                                0x2000009f   Data           1  remotedata.o(.data)
    time1                                    0x200000a2   Data           2  remotedata.o(.data)
    time2                                    0x200000a4   Data           2  remotedata.o(.data)
    .data                                    0x200000a8   Section       16  bmp280.o(.data)
    bmp280ID                                 0x200000aa   Data           1  bmp280.o(.data)
    isInit                                   0x200000ab   Data           1  bmp280.o(.data)
    bmp280RawPressure                        0x200000ac   Data           4  bmp280.o(.data)
    bmp280RawTemperature                     0x200000b0   Data           4  bmp280.o(.data)
    temp                                     0x200000b4   Data           4  bmp280.o(.data)
    .data                                    0x200000b8   Section       18  si24r1.o(.data)
    mode                                     0x200000b9   Data           1  si24r1.o(.data)
    key                                      0x200000ba   Data           1  si24r1.o(.data)
    .data                                    0x200000cc   Section       24  power.o(.data)
    cnt                                      0x200000cd   Data           1  power.o(.data)
    cnt1                                     0x200000ce   Data           1  power.o(.data)
    .data                                    0x200000e4   Section       28  altitude.o(.data)
    w_z_baro                                 0x200000e4   Data           4  altitude.o(.data)
    w_z_acc                                  0x200000e8   Data           4  altitude.o(.data)
    w_acc_bias                               0x200000ec   Data           4  altitude.o(.data)
    .data                                    0x20000100   Section       20  system_stm32f0xx.o(.data)
    .data                                    0x20000114   Section       16  stm32f0xx_rcc.o(.data)
    APBAHBPrescTable                         0x20000114   Data          16  stm32f0xx_rcc.o(.data)
    .bss                                     0x20000124   Section       14  mpu6050.o(.bss)
    MPU6050_buff                             0x20000124   Data          14  mpu6050.o(.bss)
    .bss                                     0x20000134   Section       12  imu.o(.bss)
    .bss                                     0x20000140   Section       84  imu.o(.bss)
    .bss                                     0x20000194   Section     1280  filter.o(.bss)
    buf                                      0x20000194   Data          80  filter.o(.bss)
    buf                                      0x200001e4   Data          80  filter.o(.bss)
    bufx                                     0x20000234   Data          80  filter.o(.bss)
    bufy                                     0x20000284   Data          80  filter.o(.bss)
    bufz                                     0x200002d4   Data          80  filter.o(.bss)
    bufax                                    0x20000324   Data          80  filter.o(.bss)
    bufay                                    0x20000374   Data          80  filter.o(.bss)
    bufaz                                    0x200003c4   Data          80  filter.o(.bss)
    bufgx                                    0x20000414   Data          80  filter.o(.bss)
    bufgy                                    0x20000464   Data          80  filter.o(.bss)
    bufgz                                    0x200004b4   Data          80  filter.o(.bss)
    bufax                                    0x20000504   Data          80  filter.o(.bss)
    bufay                                    0x20000554   Data          80  filter.o(.bss)
    bufaz                                    0x200005a4   Data          80  filter.o(.bss)
    buf                                      0x200005f4   Data          80  filter.o(.bss)
    buf                                      0x20000644   Data          80  filter.o(.bss)
    .bss                                     0x20000694   Section      420  control.o(.bss)
    .bss                                     0x20000838   Section       60  control.o(.bss)
    .bss                                     0x20000874   Section       62  paramsave.o(.bss)
    .bss                                     0x200008b2   Section      110  ano_dt.o(.bss)
    RxBuffer                                 0x200008b2   Data          50  ano_dt.o(.bss)
    .bss                                     0x20000920   Section       12  remotedata.o(.bss)
    .bss                                     0x2000092c   Section       48  bmp280.o(.bss)
    .bss                                     0x2000095c   Section       32  si24r1.o(.bss)
    .bss                                     0x2000097c   Section       32  si24r1.o(.bss)
    .bss                                     0x2000099c   Section       72  altitude.o(.bss)
    .bss                                     0x200009e4   Section       96  libspace.o(.bss)
    HEAP                                     0x20000a48   Section      512  startup_stm32f072.o(HEAP)
    Heap_Mem                                 0x20000a48   Data         512  startup_stm32f072.o(HEAP)
    STACK                                    0x20000c48   Section     1024  startup_stm32f072.o(STACK)
    Stack_Mem                                0x20000c48   Data        1024  startup_stm32f072.o(STACK)
    __initial_sp                             0x20001048   Data           0  startup_stm32f072.o(STACK)

    Global Symbols

    Symbol Name                              Value     Ov Type        Size  Object(Section)

    BuildAttributes$$THM_ISAv3M$S$PE$A:L22$X:L11$S22$IEEE1$IW$USESV6$~STKCKD$USESV7$~SHL$OTIME$ROPI$IEEEX$EBA8$UX$STANDARDLIB$REQ8$PRES8$EABIv2 0x00000000   Number         0  anon$$obj.o ABSOLUTE
    __ARM_use_no_argv                        0x00000000   Number         0  main.o ABSOLUTE
    __ARM_exceptions_init                     - Undefined Weak Reference
    __alloca_initialize                       - Undefined Weak Reference
    __arm_preinit_                            - Undefined Weak Reference
    __cpp_initialize__aeabi_                  - Undefined Weak Reference
    __cxa_finalize                            - Undefined Weak Reference
    __rt_locale                               - Undefined Weak Reference
    __sigvec_lookup                           - Undefined Weak Reference
    _atexit_init                              - Undefined Weak Reference
    _call_atexit_fns                          - Undefined Weak Reference
    _clock_init                               - Undefined Weak Reference
    _fp_trap_init                             - Undefined Weak Reference
    _fp_trap_shutdown                         - Undefined Weak Reference
    _get_lc_collate                           - Undefined Weak Reference
    _get_lc_ctype                             - Undefined Weak Reference
    _get_lc_monetary                          - Undefined Weak Reference
    _get_lc_numeric                           - Undefined Weak Reference
    _get_lc_time                              - Undefined Weak Reference
    _getenv_init                              - Undefined Weak Reference
    _handle_redirection                       - Undefined Weak Reference
    _init_alloc                               - Undefined Weak Reference
    _init_user_alloc                          - Undefined Weak Reference
    _initio                                   - Undefined Weak Reference
    _signal_finish                            - Undefined Weak Reference
    _signal_init                              - Undefined Weak Reference
    _terminate_alloc                          - Undefined Weak Reference
    _terminate_user_alloc                     - Undefined Weak Reference
    _terminateio                              - Undefined Weak Reference
    __Vectors_Size                           0x000000c0   Number         0  startup_stm32f072.o ABSOLUTE
    __Vectors                                0x08000000   Data           4  startup_stm32f072.o(RESET)
    __Vectors_End                            0x080000c0   Data           0  startup_stm32f072.o(RESET)
    __main                                   0x080000c1   Thumb Code     8  __main.o(!!!main)
    __scatterload                            0x080000c9   Thumb Code     0  __scatter.o(!!!scatter)
    __scatterload_rt2                        0x080000c9   Thumb Code    52  __scatter.o(!!!scatter)
    __scatterload_rt2_thumb_only             0x080000c9   Thumb Code     0  __scatter.o(!!!scatter)
    __scatterload_null                       0x080000d9   Thumb Code     0  __scatter.o(!!!scatter)
    __scatterload_copy                       0x08000105   Thumb Code    26  __scatter_copy.o(!!handler_copy)
    __scatterload_zeroinit                   0x08000121   Thumb Code    28  __scatter_zi.o(!!handler_zi)
    __rt_lib_init                            0x0800013d   Thumb Code     0  libinit.o(.ARM.Collect$$libinit$$00000000)
    __rt_lib_init_alloca_1                   0x0800013f   Thumb Code     0  libinit2.o(.ARM.Collect$$libinit$$0000002E)
    __rt_lib_init_argv_1                     0x0800013f   Thumb Code     0  libinit2.o(.ARM.Collect$$libinit$$0000002C)
    __rt_lib_init_atexit_1                   0x0800013f   Thumb Code     0  libinit2.o(.ARM.Collect$$libinit$$0000001B)
    __rt_lib_init_clock_1                    0x0800013f   Thumb Code     0  libinit2.o(.ARM.Collect$$libinit$$00000021)
    __rt_lib_init_cpp_1                      0x0800013f   Thumb Code     0  libinit2.o(.ARM.Collect$$libinit$$00000032)
    __rt_lib_init_exceptions_1               0x0800013f   Thumb Code     0  libinit2.o(.ARM.Collect$$libinit$$00000030)
    __rt_lib_init_fp_1                       0x0800013f   Thumb Code     0  libinit2.o(.ARM.Collect$$libinit$$00000002)
    __rt_lib_init_fp_trap_1                  0x0800013f   Thumb Code     0  libinit2.o(.ARM.Collect$$libinit$$0000001F)
    __rt_lib_init_getenv_1                   0x0800013f   Thumb Code     0  libinit2.o(.ARM.Collect$$libinit$$00000023)
    __rt_lib_init_heap_1                     0x0800013f   Thumb Code     0  libinit2.o(.ARM.Collect$$libinit$$0000000A)
    __rt_lib_init_lc_collate_1               0x0800013f   Thumb Code     0  libinit2.o(.ARM.Collect$$libinit$$00000011)
    __rt_lib_init_lc_ctype_1                 0x0800013f   Thumb Code     0  libinit2.o(.ARM.Collect$$libinit$$00000013)
    __rt_lib_init_lc_monetary_1              0x0800013f   Thumb Code     0  libinit2.o(.ARM.Collect$$libinit$$00000015)
    __rt_lib_init_lc_numeric_1               0x0800013f   Thumb Code     0  libinit2.o(.ARM.Collect$$libinit$$00000017)
    __rt_lib_init_lc_time_1                  0x0800013f   Thumb Code     0  libinit2.o(.ARM.Collect$$libinit$$00000019)
    __rt_lib_init_preinit_1                  0x0800013f   Thumb Code     0  libinit2.o(.ARM.Collect$$libinit$$00000004)
    __rt_lib_init_rand_1                     0x0800013f   Thumb Code     0  libinit2.o(.ARM.Collect$$libinit$$0000000E)
    __rt_lib_init_return                     0x0800013f   Thumb Code     0  libinit2.o(.ARM.Collect$$libinit$$00000033)
    __rt_lib_init_signal_1                   0x0800013f   Thumb Code     0  libinit2.o(.ARM.Collect$$libinit$$0000001D)
    __rt_lib_init_stdio_1                    0x0800013f   Thumb Code     0  libinit2.o(.ARM.Collect$$libinit$$00000025)
    __rt_lib_init_user_alloc_1               0x0800013f   Thumb Code     0  libinit2.o(.ARM.Collect$$libinit$$0000000C)
    __rt_lib_shutdown                        0x08000141   Thumb Code     0  libshutdown.o(.ARM.Collect$$libshutdown$$00000000)
    __rt_lib_shutdown_cpp_1                  0x08000143   Thumb Code     0  libshutdown2.o(.ARM.Collect$$libshutdown$$00000002)
    __rt_lib_shutdown_fp_trap_1              0x08000143   Thumb Code     0  libshutdown2.o(.ARM.Collect$$libshutdown$$00000007)
    __rt_lib_shutdown_heap_1                 0x08000143   Thumb Code     0  libshutdown2.o(.ARM.Collect$$libshutdown$$0000000F)
    __rt_lib_shutdown_return                 0x08000143   Thumb Code     0  libshutdown2.o(.ARM.Collect$$libshutdown$$00000010)
    __rt_lib_shutdown_signal_1               0x08000143   Thumb Code     0  libshutdown2.o(.ARM.Collect$$libshutdown$$0000000A)
    __rt_lib_shutdown_stdio_1                0x08000143   Thumb Code     0  libshutdown2.o(.ARM.Collect$$libshutdown$$00000004)
    __rt_lib_shutdown_user_alloc_1           0x08000143   Thumb Code     0  libshutdown2.o(.ARM.Collect$$libshutdown$$0000000C)
    __rt_entry                               0x08000145   Thumb Code     0  __rtentry.o(.ARM.Collect$$rtentry$$00000000)
    __rt_entry_presh_1                       0x08000145   Thumb Code     0  __rtentry2.o(.ARM.Collect$$rtentry$$00000002)
    __rt_entry_sh                            0x08000145   Thumb Code     0  __rtentry4.o(.ARM.Collect$$rtentry$$00000004)
    __rt_entry_li                            0x0800014b   Thumb Code     0  __rtentry2.o(.ARM.Collect$$rtentry$$0000000A)
    __rt_entry_postsh_1                      0x0800014b   Thumb Code     0  __rtentry2.o(.ARM.Collect$$rtentry$$00000009)
    __rt_entry_main                          0x0800014f   Thumb Code     0  __rtentry2.o(.ARM.Collect$$rtentry$$0000000D)
    __rt_entry_postli_1                      0x0800014f   Thumb Code     0  __rtentry2.o(.ARM.Collect$$rtentry$$0000000C)
    __rt_exit                                0x08000157   Thumb Code     0  rtexit.o(.ARM.Collect$$rtexit$$00000000)
    __rt_exit_ls                             0x08000159   Thumb Code     0  rtexit2.o(.ARM.Collect$$rtexit$$00000003)
    __rt_exit_prels_1                        0x08000159   Thumb Code     0  rtexit2.o(.ARM.Collect$$rtexit$$00000002)
    __rt_exit_exit                           0x0800015d   Thumb Code     0  rtexit2.o(.ARM.Collect$$rtexit$$00000004)
    __aeabi_memcpy4                          0x08000165   Thumb Code    56  rt_memcpy.o(.emb_text)
    __aeabi_memcpy8                          0x08000165   Thumb Code     0  rt_memcpy.o(.emb_text)
    Reset_Handler                            0x0800019d   Thumb Code    38  startup_stm32f072.o(.text)
    ADC1_COMP_IRQHandler                     0x080001cd   Thumb Code     0  startup_stm32f072.o(.text)
    CEC_CAN_IRQHandler                       0x080001cd   Thumb Code     0  startup_stm32f072.o(.text)
    DMA1_Channel1_IRQHandler                 0x080001cd   Thumb Code     0  startup_stm32f072.o(.text)
    DMA1_Channel2_3_IRQHandler               0x080001cd   Thumb Code     0  startup_stm32f072.o(.text)
    DMA1_Channel4_5_6_7_IRQHandler           0x080001cd   Thumb Code     0  startup_stm32f072.o(.text)
    EXTI2_3_IRQHandler                       0x080001cd   Thumb Code     0  startup_stm32f072.o(.text)
    EXTI4_15_IRQHandler                      0x080001cd   Thumb Code     0  startup_stm32f072.o(.text)
    FLASH_IRQHandler                         0x080001cd   Thumb Code     0  startup_stm32f072.o(.text)
    I2C1_IRQHandler                          0x080001cd   Thumb Code     0  startup_stm32f072.o(.text)
    I2C2_IRQHandler                          0x080001cd   Thumb Code     0  startup_stm32f072.o(.text)
    PVD_VDDIO2_IRQHandler                    0x080001cd   Thumb Code     0  startup_stm32f072.o(.text)
    RCC_CRS_IRQHandler                       0x080001cd   Thumb Code     0  startup_stm32f072.o(.text)
    RTC_IRQHandler                           0x080001cd   Thumb Code     0  startup_stm32f072.o(.text)
    SPI1_IRQHandler                          0x080001cd   Thumb Code     0  startup_stm32f072.o(.text)
    SPI2_IRQHandler                          0x080001cd   Thumb Code     0  startup_stm32f072.o(.text)
    TIM14_IRQHandler                         0x080001cd   Thumb Code     0  startup_stm32f072.o(.text)
    TIM15_IRQHandler                         0x080001cd   Thumb Code     0  startup_stm32f072.o(.text)
    TIM16_IRQHandler                         0x080001cd   Thumb Code     0  startup_stm32f072.o(.text)
    TIM17_IRQHandler                         0x080001cd   Thumb Code     0  startup_stm32f072.o(.text)
    TIM1_BRK_UP_TRG_COM_IRQHandler           0x080001cd   Thumb Code     0  startup_stm32f072.o(.text)
    TIM1_CC_IRQHandler                       0x080001cd   Thumb Code     0  startup_stm32f072.o(.text)
    TIM3_IRQHandler                          0x080001cd   Thumb Code     0  startup_stm32f072.o(.text)
    TIM6_DAC_IRQHandler                      0x080001cd   Thumb Code     0  startup_stm32f072.o(.text)
    TIM7_IRQHandler                          0x080001cd   Thumb Code     0  startup_stm32f072.o(.text)
    TSC_IRQHandler                           0x080001cd   Thumb Code     0  startup_stm32f072.o(.text)
    USART2_IRQHandler                        0x080001cd   Thumb Code     0  startup_stm32f072.o(.text)
    USART3_4_IRQHandler                      0x080001cd   Thumb Code     0  startup_stm32f072.o(.text)
    USB_IRQHandler                           0x080001cd   Thumb Code     0  startup_stm32f072.o(.text)
    WWDG_IRQHandler                          0x080001cd   Thumb Code     0  startup_stm32f072.o(.text)
    __user_initial_stackheap                 0x080001d1   Thumb Code     0  startup_stm32f072.o(.text)
    __aeabi_lmul                             0x08000211   Thumb Code    48  llmul.o(.text)
    _ll_mul                                  0x08000211   Thumb Code     0  llmul.o(.text)
    __aeabi_ldivmod                          0x08000241   Thumb Code   112  llsdiv.o(.text)
    _ll_sdiv                                 0x08000241   Thumb Code     0  llsdiv.o(.text)
    __aeabi_memcpy                           0x080002b1   Thumb Code   130  rt_memcpy.o(.text)
    __rt_memcpy                              0x080002b1   Thumb Code     0  rt_memcpy.o(.text)
    __aeabi_uidiv                            0x08000333   Thumb Code     0  aeabi_sdiv.o(.text)
    __aeabi_uidivmod                         0x08000333   Thumb Code    20  aeabi_sdiv.o(.text)
    __aeabi_idiv                             0x08000347   Thumb Code     0  aeabi_sdiv.o(.text)
    __aeabi_idivmod                          0x08000347   Thumb Code   326  aeabi_sdiv.o(.text)
    __use_two_region_memory                  0x0800048d   Thumb Code     2  heapauxi.o(.text)
    __rt_heap_escrow$2region                 0x0800048f   Thumb Code     2  heapauxi.o(.text)
    __rt_heap_expand$2region                 0x08000491   Thumb Code     2  heapauxi.o(.text)
    __aeabi_d2f                              0x08000495   Thumb Code     0  d2f.o(.text)
    _d2f                                     0x08000495   Thumb Code   120  d2f.o(.text)
    __aeabi_dadd                             0x08000809   Thumb Code     0  daddsub.o(.text)
    _dadd                                    0x08000809   Thumb Code    26  daddsub.o(.text)
    __aeabi_dsub                             0x08000823   Thumb Code     0  daddsub.o(.text)
    _dsub                                    0x08000823   Thumb Code    22  daddsub.o(.text)
    __aeabi_drsub                            0x08000839   Thumb Code     0  daddsub.o(.text)
    _drsb                                    0x08000839   Thumb Code    28  daddsub.o(.text)
    __aeabi_ddiv                             0x08000869   Thumb Code     0  ddiv.o(.text)
    _ddiv                                    0x08000869   Thumb Code  1072  ddiv.o(.text)
    _drdiv                                   0x08000c99   Thumb Code    20  ddiv.o(.text)
    __aeabi_i2d_normalise                    0x08000cb1   Thumb Code    66  dflti.o(.text)
    __aeabi_i2d                              0x08000cf3   Thumb Code    16  dflti.o(.text)
    _dflt                                    0x08000cf3   Thumb Code     0  dflti.o(.text)
    __aeabi_ui2d                             0x08000d03   Thumb Code     6  dflti.o(.text)
    _dfltu                                   0x08000d03   Thumb Code     0  dflti.o(.text)
    __aeabi_dmul                             0x08000d09   Thumb Code     0  dmul.o(.text)
    _dmul                                    0x08000d09   Thumb Code   558  dmul.o(.text)
    __aeabi_f2d                              0x08000f51   Thumb Code     0  f2d.o(.text)
    _f2d                                     0x08000f51   Thumb Code    80  f2d.o(.text)
    __aeabi_fdiv                             0x08000fa5   Thumb Code     0  fdiv.o(.text)
    _fdiv                                    0x08000fa5   Thumb Code   334  fdiv.o(.text)
    _frdiv                                   0x080010f3   Thumb Code     8  fdiv.o(.text)
    __aeabi_f2iz                             0x08001105   Thumb Code     0  ffixi.o(.text)
    _ffix                                    0x08001105   Thumb Code    76  ffixi.o(.text)
    __aeabi_f2uiz                            0x08001151   Thumb Code     0  ffixui.o(.text)
    _ffixu                                   0x08001151   Thumb Code    48  ffixui.o(.text)
    __aeabi_i2f_normalise                    0x08001181   Thumb Code    72  fflti.o(.text)
    __aeabi_i2f                              0x080011c9   Thumb Code    16  fflti.o(.text)
    _fflt                                    0x080011c9   Thumb Code     0  fflti.o(.text)
    __aeabi_ui2f                             0x080011d9   Thumb Code     6  fflti.o(.text)
    _ffltu                                   0x080011d9   Thumb Code     0  fflti.o(.text)
    __ARM_scalbnf                            0x080011e1   Thumb Code    64  fscalbn.o(.text)
    __aeabi_uldivmod                         0x08001225   Thumb Code   258  lludiv.o(.text)
    _ll_udiv                                 0x08001225   Thumb Code     0  lludiv.o(.text)
    __read_errno                             0x08001327   Thumb Code    10  _rserrno.o(.text)
    __set_errno                              0x08001331   Thumb Code    12  _rserrno.o(.text)
    __ARM_scalbn                             0x0800133d   Thumb Code    84  dscalbn.o(.text)
    __fpl_fcmp_InfNaN                        0x0800139d   Thumb Code    96  fcmpin.o(.text)
    _frnd                                    0x08001401   Thumb Code   122  frnd.o(.text)
    __aeabi_errno_addr                       0x08001481   Thumb Code     8  rt_errno_addr_intlibspace.o(.text)
    __errno$intlibspace                      0x08001481   Thumb Code     0  rt_errno_addr_intlibspace.o(.text)
    __rt_errno_addr$intlibspace              0x08001481   Thumb Code     0  rt_errno_addr_intlibspace.o(.text)
    __fpl_cmpreturn                          0x08001489   Thumb Code    46  cmpret.o(.text)
    __fpl_dcmp_InfNaN                        0x080014b9   Thumb Code   140  dcmpin.o(.text)
    _dsqrt                                   0x08001549   Thumb Code   248  dsqrt.o(.text)
    __fpl_fcheck_NaN2                        0x08001649   Thumb Code    10  fnan2.o(.text)
    __user_libspace                          0x08001659   Thumb Code     8  libspace.o(.text)
    __user_perproc_libspace                  0x08001659   Thumb Code     0  libspace.o(.text)
    __user_perthread_libspace                0x08001659   Thumb Code     0  libspace.o(.text)
    __user_setup_stackheap                   0x08001661   Thumb Code    62  sys_stackheap_outer.o(.text)
    exit                                     0x0800169f   Thumb Code    16  exit.o(.text)
    __fpl_dcheck_NaN2                        0x080016b1   Thumb Code    14  dnan2.o(.text)
    __fpl_return_NaN                         0x080016c5   Thumb Code    94  retnan.o(.text)
    _sys_exit                                0x08001725   Thumb Code     8  sys_exit.o(.text)
    __I$use$semihosting                      0x08001731   Thumb Code     0  use_no_semi.o(.text)
    __use_no_semihosting_swi                 0x08001731   Thumb Code     2  use_no_semi.o(.text)
    ADC_ChannelConfig                        0x08001733   Thumb Code    10  stm32f0xx_adc.o(i.ADC_ChannelConfig)
    __semihosting_library_function           0x08001733   Thumb Code     0  indicate_semi.o(.text)
    ADC_Cmd                                  0x0800173d   Thumb Code    18  stm32f0xx_adc.o(i.ADC_Cmd)
    ADC_DeInit                               0x08001751   Thumb Code    28  stm32f0xx_adc.o(i.ADC_DeInit)
    ADC_GetCalibrationFactor                 0x08001771   Thumb Code    46  stm32f0xx_adc.o(i.ADC_GetCalibrationFactor)
    ADC_GetConversionValue                   0x0800179f   Thumb Code     6  stm32f0xx_adc.o(i.ADC_GetConversionValue)
    ADC_GetFlagStatus                        0x080017a5   Thumb Code    28  stm32f0xx_adc.o(i.ADC_GetFlagStatus)
    ADC_Init                                 0x080017c1   Thumb Code    38  stm32f0xx_adc.o(i.ADC_Init)
    ADC_StartOfConversion                    0x080017ed   Thumb Code    10  stm32f0xx_adc.o(i.ADC_StartOfConversion)
    ADC_StructInit                           0x080017f7   Thumb Code    16  stm32f0xx_adc.o(i.ADC_StructInit)
    ANO_DT_Data_Exchange                     0x08001809   Thumb Code   616  ano_dt.o(i.ANO_DT_Data_Exchange)
    ANO_DT_Data_Receive_Anl                  0x08001af1   Thumb Code  1006  ano_dt.o(i.ANO_DT_Data_Receive_Anl)
    ANO_DT_Data_Receive_Prepare              0x08001f21   Thumb Code   144  ano_dt.o(i.ANO_DT_Data_Receive_Prepare)
    ANO_DT_Send_ALT                          0x08001fb9   Thumb Code   108  ano_dt.o(i.ANO_DT_Send_ALT)
    ANO_DT_Send_Data                         0x08002061   Thumb Code     8  ano_dt.o(i.ANO_DT_Send_Data)
    ANO_DT_Send_MotoPWM                      0x08002069   Thumb Code   148  ano_dt.o(i.ANO_DT_Send_MotoPWM)
    ANO_DT_Send_PID                          0x08002101   Thumb Code   278  ano_dt.o(i.ANO_DT_Send_PID)
    ANO_DT_Send_RCData                       0x08002221   Thumb Code   172  ano_dt.o(i.ANO_DT_Send_RCData)
    ANO_DT_Send_Senser                       0x080022d1   Thumb Code   154  ano_dt.o(i.ANO_DT_Send_Senser)
    ANO_DT_Send_Status                       0x08002371   Thumb Code   158  ano_dt.o(i.ANO_DT_Send_Status)
    Altitude_Combine                         0x08002419   Thumb Code   460  altitude.o(i.Altitude_Combine)
    Altitude_Control                         0x0800260d   Thumb Code    16  altitude.o(i.Altitude_Control)
    Aver_Filter                              0x08002629   Thumb Code    96  filter.o(i.Aver_Filter)
    BATT_GetVoltage                          0x08002691   Thumb Code    56  power.o(i.BATT_GetVoltage)
    BATT_Init                                0x080026d1   Thumb Code   124  power.o(i.BATT_Init)
    Control                                  0x08002751   Thumb Code   546  control.o(i.Control)
    Deblocking                               0x0800299d   Thumb Code   138  remotedata.o(i.Deblocking)
    DefaultParams                            0x08002a35   Thumb Code    92  paramsave.o(i.DefaultParams)
    DefaultParams_WriteFlash                 0x08002a9d   Thumb Code    18  paramsave.o(i.DefaultParams_WriteFlash)
    Delay_Init                               0x08002ab9   Thumb Code    36  delay.o(i.Delay_Init)
    Delay_ms                                 0x08002ae9   Thumb Code    44  delay.o(i.Delay_ms)
    Delay_us                                 0x08002b1d   Thumb Code    44  delay.o(i.Delay_us)
    EXTI0_1_IRQHandler                       0x08002b51   Thumb Code   102  stm32f0xx_it.o(i.EXTI0_1_IRQHandler)
    EXTI_ClearITPendingBit                   0x08002bbd   Thumb Code     6  stm32f0xx_exti.o(i.EXTI_ClearITPendingBit)
    EXTI_GetITStatus                         0x08002bc9   Thumb Code    16  stm32f0xx_exti.o(i.EXTI_GetITStatus)
    EXTI_Init                                0x08002bdd   Thumb Code   102  stm32f0xx_exti.o(i.EXTI_Init)
    Exit_Init                                0x08002c49   Thumb Code    68  exit.o(i.Exit_Init)
    FLASH_ErasePage                          0x08002c8d   Thumb Code    52  stm32f0xx_flash.o(i.FLASH_ErasePage)
    FLASH_GetStatus                          0x08002cc5   Thumb Code    34  stm32f0xx_flash.o(i.FLASH_GetStatus)
    FLASH_Lock                               0x08002ced   Thumb Code    12  stm32f0xx_flash.o(i.FLASH_Lock)
    FLASH_ProgramWord                        0x08002cfd   Thumb Code    70  stm32f0xx_flash.o(i.FLASH_ProgramWord)
    FLASH_Unlock                             0x08002d49   Thumb Code    18  stm32f0xx_flash.o(i.FLASH_Unlock)
    FLASH_WaitForLastOperation               0x08002d69   Thumb Code    34  stm32f0xx_flash.o(i.FLASH_WaitForLastOperation)
    FindPos                                  0x08002d8b   Thumb Code    86  filter.o(i.FindPos)
    GPIO_Init                                0x08002de1   Thumb Code   112  stm32f0xx_gpio.o(i.GPIO_Init)
    GPIO_PinAFConfig                         0x08002e51   Thumb Code    32  stm32f0xx_gpio.o(i.GPIO_PinAFConfig)
    GPIO_ReadInputDataBit                    0x08002e71   Thumb Code    14  stm32f0xx_gpio.o(i.GPIO_ReadInputDataBit)
    GPIO_ResetBits                           0x08002e7f   Thumb Code     4  stm32f0xx_gpio.o(i.GPIO_ResetBits)
    GPIO_SetBits                             0x08002e83   Thumb Code     4  stm32f0xx_gpio.o(i.GPIO_SetBits)
    Get_BatteryAdc                           0x08002e89   Thumb Code    24  power.o(i.Get_BatteryAdc)
    HardFault_Handler                        0x08002ea5   Thumb Code     2  stm32f0xx_it.o(i.HardFault_Handler)
    IIC_ADD_read                             0x08002ea7   Thumb Code    62  iic.o(i.IIC_ADD_read)
    IIC_Ack                                  0x08002ee5   Thumb Code    56  iic.o(i.IIC_Ack)
    IIC_GPIO_Init                            0x08002f21   Thumb Code    46  iic.o(i.IIC_GPIO_Init)
    IIC_NAck                                 0x08002f55   Thumb Code    56  iic.o(i.IIC_NAck)
    IIC_ReadByte                             0x08002f91   Thumb Code    92  iic.o(i.IIC_ReadByte)
    IIC_ReadByteFromSlave                    0x08002ff1   Thumb Code    76  iic.o(i.IIC_ReadByteFromSlave)
    IIC_ReadMultByteFromSlave                0x0800303d   Thumb Code    90  iic.o(i.IIC_ReadMultByteFromSlave)
    IIC_SendByte                             0x08003099   Thumb Code    86  iic.o(i.IIC_SendByte)
    IIC_Start                                0x080030f5   Thumb Code    54  iic.o(i.IIC_Start)
    IIC_Stop                                 0x08003131   Thumb Code    56  iic.o(i.IIC_Stop)
    IIC_WaitAck                              0x0800316d   Thumb Code    84  iic.o(i.IIC_WaitAck)
    IIC_WriteByteToSlave                     0x080031c5   Thumb Code    66  iic.o(i.IIC_WriteByteToSlave)
    IMUupdate                                0x08003209   Thumb Code  1128  imu.o(i.IMUupdate)
    LED_Init                                 0x08003679   Thumb Code    50  led.o(i.LED_Init)
    LED_Run                                  0x080036b1   Thumb Code    36  led.o(i.LED_Run)
    LowVoltage_Alarm                         0x080036dd   Thumb Code    86  power.o(i.LowVoltage_Alarm)
    MOTOR_Init                               0x08003745   Thumb Code   192  motor.o(i.MOTOR_Init)
    MPU6050_Init                             0x08003811   Thumb Code    86  mpu6050.o(i.MPU6050_Init)
    MPU6050_OffSet                           0x08003869   Thumb Code   132  mpu6050.o(i.MPU6050_OffSet)
    MPU6050_Offset                           0x080038f1   Thumb Code   212  mpu6050.o(i.MPU6050_Offset)
    MPU6050_Read                             0x080039d1   Thumb Code    14  mpu6050.o(i.MPU6050_Read)
    MPU6050_ReadMultBytes                    0x080039e5   Thumb Code    22  mpu6050.o(i.MPU6050_ReadMultBytes)
    MPU6050_WriteByte                        0x080039fb   Thumb Code    20  mpu6050.o(i.MPU6050_WriteByte)
    Moto_Pwm                                 0x08003a11   Thumb Code    70  motor.o(i.Moto_Pwm)
    NMI_Handler                              0x08003a5d   Thumb Code    34  stm32f0xx_it.o(i.NMI_Handler)
    NVIC_Init                                0x08003a81   Thumb Code    70  stm32f0xx_misc.o(i.NVIC_Init)
    NvicConfig                               0x08003ad1   Thumb Code    58  nvic.o(i.NvicConfig)
    PID_Postion_Cal                          0x08003b0d   Thumb Code   202  pid.o(i.PID_Postion_Cal)
    PID_ReadFlash                            0x08003be1   Thumb Code    74  paramsave.o(i.PID_ReadFlash)
    PID_WriteFlash                           0x08003c65   Thumb Code    18  paramsave.o(i.PID_WriteFlash)
    ParamsToTable                            0x08003c81   Thumb Code   388  paramsave.o(i.ParamsToTable)
    PendSV_Handler                           0x08003e35   Thumb Code     2  stm32f0xx_it.o(i.PendSV_Handler)
    PidParameter_init                        0x08003e39   Thumb Code    98  pid.o(i.PidParameter_init)
    Prepare_Data                             0x08003ecd   Thumb Code   278  imu.o(i.Prepare_Data)
    QuiteSort                                0x08004009   Thumb Code    42  filter.o(i.QuiteSort)
    RCC_AHBPeriphClockCmd                    0x08004035   Thumb Code    18  stm32f0xx_rcc.o(i.RCC_AHBPeriphClockCmd)
    RCC_APB1PeriphClockCmd                   0x0800404d   Thumb Code    18  stm32f0xx_rcc.o(i.RCC_APB1PeriphClockCmd)
    RCC_APB1PeriphResetCmd                   0x08004065   Thumb Code    18  stm32f0xx_rcc.o(i.RCC_APB1PeriphResetCmd)
    RCC_APB2PeriphClockCmd                   0x0800407d   Thumb Code    18  stm32f0xx_rcc.o(i.RCC_APB2PeriphClockCmd)
    RCC_APB2PeriphResetCmd                   0x08004095   Thumb Code    18  stm32f0xx_rcc.o(i.RCC_APB2PeriphResetCmd)
    RCC_ClearITPendingBit                    0x080040ad   Thumb Code     6  stm32f0xx_rcc.o(i.RCC_ClearITPendingBit)
    RCC_GetClocksFreq                        0x080040b9   Thumb Code   346  stm32f0xx_rcc.o(i.RCC_GetClocksFreq)
    RCC_GetITStatus                          0x08004231   Thumb Code    16  stm32f0xx_rcc.o(i.RCC_GetITStatus)
    RCC_HSEConfig                            0x08004245   Thumb Code    10  stm32f0xx_rcc.o(i.RCC_HSEConfig)
    RCC_ITConfig                             0x08004255   Thumb Code    18  stm32f0xx_rcc.o(i.RCC_ITConfig)
    Remote_Data_ReceiveAnalysis              0x0800426d   Thumb Code   128  remotedata.o(i.Remote_Data_ReceiveAnalysis)
    SI24R1_Check                             0x08004305   Thumb Code    22  si24r1.o(i.SI24R1_Check)
    SI24R1_Config                            0x0800432d   Thumb Code    90  si24r1.o(i.SI24R1_Config)
    SI24R1_Init                              0x0800438d   Thumb Code   108  si24r1.o(i.SI24R1_Init)
    SI24R1_Read_Buf                          0x080043f9   Thumb Code    58  si24r1.o(i.SI24R1_Read_Buf)
    SI24R1_RxPacket                          0x08004433   Thumb Code    22  si24r1.o(i.SI24R1_RxPacket)
    SI24R1_SingalCheck                       0x08004449   Thumb Code    16  remotedata.o(i.SI24R1_SingalCheck)
    SI24R1_TxPacket                          0x08004461   Thumb Code    78  si24r1.o(i.SI24R1_TxPacket)
    SI24R1_Write_Buf                         0x080044b5   Thumb Code    58  si24r1.o(i.SI24R1_Write_Buf)
    SI24R1_read_reg                          0x080044ef   Thumb Code    42  si24r1.o(i.SI24R1_read_reg)
    SI24R1_testConnection                    0x08004519   Thumb Code    74  si24r1.o(i.SI24R1_testConnection)
    SI24R1_write_reg                         0x08004571   Thumb Code    44  si24r1.o(i.SI24R1_write_reg)
    SI24R1set_Mode                           0x0800459d   Thumb Code    60  si24r1.o(i.SI24R1set_Mode)
    SPI1_WriteReadByte                       0x080045d9   Thumb Code    74  spi.o(i.SPI1_WriteReadByte)
    SPI_Cmd                                  0x08004629   Thumb Code    18  stm32f0xx_spi.o(i.SPI_Cmd)
    SPI_GPIO_Init                            0x0800463d   Thumb Code   178  spi.o(i.SPI_GPIO_Init)
    SPI_I2S_DeInit                           0x080046f5   Thumb Code    54  stm32f0xx_spi.o(i.SPI_I2S_DeInit)
    SPI_I2S_GetFlagStatus                    0x08004735   Thumb Code    14  stm32f0xx_spi.o(i.SPI_I2S_GetFlagStatus)
    SPI_Init                                 0x08004745   Thumb Code    74  stm32f0xx_spi.o(i.SPI_Init)
    SPI_ReceiveData8                         0x08004799   Thumb Code     4  stm32f0xx_spi.o(i.SPI_ReceiveData8)
    SPI_RxFIFOThresholdConfig                0x0800479d   Thumb Code    16  stm32f0xx_spi.o(i.SPI_RxFIFOThresholdConfig)
    SPI_SendData8                            0x080047b1   Thumb Code     4  stm32f0xx_spi.o(i.SPI_SendData8)
    STMFLASH_Read                            0x080047b5   Thumb Code    20  flash.o(i.STMFLASH_Read)
    STMFLASH_Write                           0x080047c9   Thumb Code   104  flash.o(i.STMFLASH_Write)
    SVC_Handler                              0x08004839   Thumb Code     2  stm32f0xx_it.o(i.SVC_Handler)
    SYSCFG_EXTILineConfig                    0x0800483d   Thumb Code    34  stm32f0xx_syscfg.o(i.SYSCFG_EXTILineConfig)
    SendToRemote                             0x08004865   Thumb Code   182  remotedata.o(i.SendToRemote)
    SortAver_FilterXYZ                       0x080049d9   Thumb Code   238  filter.o(i.SortAver_FilterXYZ)
    SysTick_CLKSourceConfig                  0x08004ad1   Thumb Code    20  stm32f0xx_misc.o(i.SysTick_CLKSourceConfig)
    SysTick_Handler                          0x08004ae9   Thumb Code    10  stm32f0xx_it.o(i.SysTick_Handler)
    SystemInit                               0x08004af9   Thumb Code    84  system_stm32f0xx.o(i.SystemInit)
    System_Init                              0x08004b59   Thumb Code    80  system.o(i.System_Init)
    TIM2_IRQHandler                          0x08004ba9   Thumb Code   154  stm32f0xx_it.o(i.TIM2_IRQHandler)
    TIM_ClearITPendingBit                    0x08004c49   Thumb Code     6  stm32f0xx_tim.o(i.TIM_ClearITPendingBit)
    TIM_Cmd                                  0x08004c4f   Thumb Code    20  stm32f0xx_tim.o(i.TIM_Cmd)
    TIM_CtrlPWMOutputs                       0x08004c63   Thumb Code    24  stm32f0xx_tim.o(i.TIM_CtrlPWMOutputs)
    TIM_GetITStatus                          0x08004c7b   Thumb Code    24  stm32f0xx_tim.o(i.TIM_GetITStatus)
    TIM_ITConfig                             0x08004c93   Thumb Code    16  stm32f0xx_tim.o(i.TIM_ITConfig)
    TIM_Init                                 0x08004ca5   Thumb Code    56  tim.o(i.TIM_Init)
    TIM_OC1Init                              0x08004ce1   Thumb Code   104  stm32f0xx_tim.o(i.TIM_OC1Init)
    TIM_OC2Init                              0x08004d5d   Thumb Code   124  stm32f0xx_tim.o(i.TIM_OC2Init)
    TIM_OC3Init                              0x08004ded   Thumb Code   110  stm32f0xx_tim.o(i.TIM_OC3Init)
    TIM_OC4Init                              0x08004e75   Thumb Code    78  stm32f0xx_tim.o(i.TIM_OC4Init)
    TIM_TimeBaseInit                         0x08004ed9   Thumb Code    88  stm32f0xx_tim.o(i.TIM_TimeBaseInit)
    TableToParams                            0x08004f4d   Thumb Code   388  paramsave.o(i.TableToParams)
    Task_Schedule                            0x08005101   Thumb Code   138  system.o(i.Task_Schedule)
    USART1_IRQHandler                        0x080051bd   Thumb Code   114  stm32f0xx_it.o(i.USART1_IRQHandler)
    USART_ClearFlag                          0x0800523d   Thumb Code     4  stm32f0xx_usart.o(i.USART_ClearFlag)
    USART_ClearITPendingBit                  0x08005241   Thumb Code    10  stm32f0xx_usart.o(i.USART_ClearITPendingBit)
    USART_Cmd                                0x0800524b   Thumb Code    20  stm32f0xx_usart.o(i.USART_Cmd)
    USART_GetFlagStatus                      0x0800525f   Thumb Code    14  stm32f0xx_usart.o(i.USART_GetFlagStatus)
    USART_GetITStatus                        0x0800526d   Thumb Code    56  stm32f0xx_usart.o(i.USART_GetITStatus)
    USART_ITConfig                           0x080052a5   Thumb Code    42  stm32f0xx_usart.o(i.USART_ITConfig)
    USART_Init                               0x080052d1   Thumb Code   148  stm32f0xx_usart.o(i.USART_Init)
    USART_SendData                           0x08005379   Thumb Code     8  stm32f0xx_usart.o(i.USART_SendData)
    USART_init                               0x08005381   Thumb Code   122  usart.o(i.USART_init)
    Yaw_Carefree                             0x08005405   Thumb Code    90  control.o(i.Yaw_Carefree)
    __ARM_common_ll_muluu                    0x08005465   Thumb Code    50  rredf.o(i.__ARM_common_ll_muluu)
    __ARM_fpclassify                         0x08005499   Thumb Code    40  fpclassify.o(i.__ARM_fpclassify)
    __ARM_fpclassifyf                        0x080054c5   Thumb Code    34  fpclassifyf.o(i.__ARM_fpclassifyf)
    __kernel_poly                            0x080054e7   Thumb Code   172  poly.o(i.__kernel_poly)
    __mathlib_dbl_divzero                    0x08005595   Thumb Code    16  dunder.o(i.__mathlib_dbl_divzero)
    __mathlib_dbl_infnan                     0x080055a9   Thumb Code    10  dunder.o(i.__mathlib_dbl_infnan)
    __mathlib_dbl_infnan2                    0x080055b3   Thumb Code     8  dunder.o(i.__mathlib_dbl_infnan2)
    __mathlib_dbl_invalid                    0x080055bb   Thumb Code    16  dunder.o(i.__mathlib_dbl_invalid)
    __mathlib_dbl_overflow                   0x080055cd   Thumb Code    16  dunder.o(i.__mathlib_dbl_overflow)
    __mathlib_dbl_underflow                  0x080055e1   Thumb Code    14  dunder.o(i.__mathlib_dbl_underflow)
    __mathlib_flt_infnan                     0x080055f5   Thumb Code    10  funder.o(i.__mathlib_flt_infnan)
    __mathlib_flt_invalid                    0x080055ff   Thumb Code    12  funder.o(i.__mathlib_flt_invalid)
    __mathlib_flt_underflow                  0x0800560b   Thumb Code    14  funder.o(i.__mathlib_flt_underflow)
    __mathlib_rredf2                         0x08005619   Thumb Code   366  rredf.o(i.__mathlib_rredf2)
    asin                                     0x08005799   Thumb Code   574  asin.o(i.asin)
    atan                                     0x08005a0d   Thumb Code   472  atan.o(i.atan)
    atan2                                    0x08005c29   Thumb Code   334  atan2.o(i.atan2)
    bmp280GetData                            0x08005ef5   Thumb Code   198  bmp280.o(i.bmp280GetData)
    bmp280Init                               0x08005fd1   Thumb Code   106  bmp280.o(i.bmp280Init)
    cosf                                     0x080060a5   Thumb Code   318  cosf.o(i.cosf)
    main                                     0x080062b9   Thumb Code    10  main.o(i.main)
    pow                                      0x080062c5   Thumb Code  2548  pow.o(i.pow)
    sinf                                     0x08006cc1   Thumb Code   330  sinf.o(i.sinf)
    sqrt                                     0x08006e45   Thumb Code    66  sqrt.o(i.sqrt)
    usart_send                               0x08006e8d   Thumb Code    42  usart.o(i.usart_send)
    __aeabi_cdrcmple                         0x08006ebd   Thumb Code     0  drlef.o(x$fpl$drleqf)
    _drcmple                                 0x08006ebd   Thumb Code   100  drlef.o(x$fpl$drleqf)
    __aeabi_fadd                             0x08006f25   Thumb Code     0  faddsub.o(x$fpl$fadd)
    _fadd                                    0x08006f25   Thumb Code   134  faddsub.o(x$fpl$fadd)
    __aeabi_cfcmple                          0x08006fb1   Thumb Code     0  flef.o(x$fpl$fleqf)
    _fcmple                                  0x08006fb1   Thumb Code    78  flef.o(x$fpl$fleqf)
    __aeabi_fmul                             0x08007005   Thumb Code     0  fmul.o(x$fpl$fmul)
    _fmul                                    0x08007005   Thumb Code   172  fmul.o(x$fpl$fmul)
    __aeabi_cfrcmple                         0x080070b5   Thumb Code     0  frlef.o(x$fpl$frleqf)
    _frcmple                                 0x080070b5   Thumb Code    84  frlef.o(x$fpl$frleqf)
    __aeabi_frsub                            0x0800710d   Thumb Code     0  faddsub.o(x$fpl$frsb)
    _frsb                                    0x0800710d   Thumb Code    24  faddsub.o(x$fpl$frsb)
    __aeabi_fsub                             0x08007125   Thumb Code     0  faddsub.o(x$fpl$fsub)
    _fsub                                    0x08007125   Thumb Code   204  faddsub.o(x$fpl$fsub)
    __I$use$fp                               0x080071f4   Number         0  usenofp.o(x$fpl$usenofp)
    __mathlib_zero                           0x08007448   Data           8  qnan.o(.constdata)
    Region$$Table$$Base                      0x08007470   Number         0  anon$$obj.o(Region$$Table)
    Region$$Table$$Limit                     0x08007490   Number         0  anon$$obj.o(Region$$Table)
    LED_Scan                                 0x20000000   Data           1  stm32f0xx_it.o(.data)
    IMU_Scan                                 0x20000001   Data           1  stm32f0xx_it.o(.data)
    MPU_Scan                                 0x20000002   Data           1  stm32f0xx_it.o(.data)
    IRQ_Scan                                 0x20000003   Data           1  stm32f0xx_it.o(.data)
    BMP_Scan                                 0x20000004   Data           1  stm32f0xx_it.o(.data)
    Batt_Scan                                0x20000005   Data           1  stm32f0xx_it.o(.data)
    ANO_Scan                                 0x20000006   Data           1  stm32f0xx_it.o(.data)
    sysTickUptime                            0x2000001c   Data           4  delay.o(.data)
    Run_flag                                 0x20000020   Data           1  led.o(.data)
    SENSER_OFFSET_FLAG                       0x20000024   Data           1  mpu6050.o(.data)
    GYRO_OFFSET_RAW                          0x20000034   Data           6  mpu6050.o(.data)
    ACC_OFFSET_RAW                           0x2000003a   Data           6  mpu6050.o(.data)
    MPU6050_ACC_RAW                          0x20000040   Data           6  mpu6050.o(.data)
    MPU6050_GYRO_RAW                         0x20000046   Data           6  mpu6050.o(.data)
    AccbUpdate                               0x2000004c   Data           1  imu.o(.data)
    q0                                       0x20000050   Data           4  imu.o(.data)
    q1                                       0x20000054   Data           4  imu.o(.data)
    q2                                       0x20000058   Data           4  imu.o(.data)
    q3                                       0x2000005c   Data           4  imu.o(.data)
    exInt                                    0x20000060   Data           4  imu.o(.data)
    eyInt                                    0x20000064   Data           4  imu.o(.data)
    ezInt                                    0x20000068   Data           4  imu.o(.data)
    SI24R1_Controlflag                       0x2000007c   Data           1  control.o(.data)
    Airplane_Enable                          0x2000007d   Data           1  control.o(.data)
    Flight_mode                              0x2000007e   Data           1  control.o(.data)
    Moto_PWM_1                               0x20000084   Data           4  control.o(.data)
    Moto_PWM_2                               0x20000088   Data           4  control.o(.data)
    Moto_PWM_3                               0x2000008c   Data           4  control.o(.data)
    Moto_PWM_4                               0x20000090   Data           4  control.o(.data)
    flag                                     0x20000094   Data           1  ano_dt.o(.data)
    DataID                                   0x200000a0   Data           1  remotedata.o(.data)
    ALTIUDE_OK                               0x200000a8   Data           1  bmp280.o(.data)
    ALT_Updated                              0x200000a9   Data           1  bmp280.o(.data)
    SI24R1addr                               0x200000b8   Data           1  si24r1.o(.data)
    TX_ADDRESS                               0x200000bb   Data           5  si24r1.o(.data)
    RX_ADDRESS                               0x200000c0   Data           5  si24r1.o(.data)
    check_buf                                0x200000c5   Data           5  si24r1.o(.data)
    BATT_LEDflag                             0x200000cc   Data           1  power.o(.data)
    BAT                                      0x200000d0   Data          20  power.o(.data)
    corr_baro                                0x200000f0   Data           4  altitude.o(.data)
    accel_NED                                0x200000f4   Data          12  altitude.o(.data)
    SystemCoreClock                          0x20000100   Data           4  system_stm32f0xx.o(.data)
    AHBPrescTable                            0x20000104   Data          16  system_stm32f0xx.o(.data)
    Att_Angle                                0x20000134   Data          12  imu.o(.bss)
    Gyr_rad                                  0x20000140   Data          12  imu.o(.bss)
    Acc_filt                                 0x2000014c   Data          12  imu.o(.bss)
    Acc_filtold                              0x20000158   Data          12  imu.o(.bss)
    accb                                     0x20000164   Data          12  imu.o(.bss)
    DCMgb                                    0x20000170   Data          36  imu.o(.bss)
    PID_ROL_Angle                            0x20000694   Data          60  control.o(.bss)
    PID_PIT_Angle                            0x200006d0   Data          60  control.o(.bss)
    PID_YAW_Angle                            0x2000070c   Data          60  control.o(.bss)
    PID_ROL_Rate                             0x20000748   Data          60  control.o(.bss)
    PID_PIT_Rate                             0x20000784   Data          60  control.o(.bss)
    PID_YAW_Rate                             0x200007c0   Data          60  control.o(.bss)
    PID_ALT                                  0x200007fc   Data          60  control.o(.bss)
    PID_ALT_Rate                             0x20000838   Data          60  control.o(.bss)
    PIDflash                                 0x20000874   Data          62  paramsave.o(.bss)
    f                                        0x200008e4   Data          10  ano_dt.o(.bss)
    data_to_send                             0x200008ee   Data          50  ano_dt.o(.bss)
    RC_Control                               0x20000920   Data          12  remotedata.o(.bss)
    Bmp280                                   0x2000092c   Data          20  bmp280.o(.bss)
    bmp280Cal                                0x20000940   Data          28  bmp280.o(.bss)
    SI24R1_TX_DATA                           0x2000095c   Data          32  si24r1.o(.bss)
    SI24R1_RX_DATA                           0x2000097c   Data          32  si24r1.o(.bss)
    corr_acc                                 0x2000099c   Data          12  altitude.o(.bss)
    acc_bias                                 0x200009a8   Data          12  altitude.o(.bss)
    nav                                      0x200009b4   Data          36  altitude.o(.bss)
    z_est                                    0x200009d8   Data          12  altitude.o(.bss)
    __libspace_start                         0x200009e4   Data          96  libspace.o(.bss)
    __temporary_stack_top$libspace           0x20000a44   Data           0  libspace.o(.bss)



==============================================================================

Memory Map of the image

  Image Entry point : 0x080000c1

  Load Region LR_IROM1 (Base: 0x08000000, Size: 0x000075b4, Max: 0x00010000, ABSOLUTE)

    Execution Region ER_IROM1 (Exec base: 0x08000000, Load base: 0x08000000, Size: 0x00007490, Max: 0x00010000, ABSOLUTE)

    Exec Addr    Load Addr    Size         Type   Attr      Idx    E Section Name        Object

    0x08000000   0x08000000   0x000000c0   Data   RO         1465    RESET               startup_stm32f072.o
    0x080000c0   0x080000c0   0x00000008   Code   RO         3504  * !!!main             c_p.l(__main.o)
    0x080000c8   0x080000c8   0x0000003c   Code   RO         3847    !!!scatter          c_p.l(__scatter.o)
    0x08000104   0x08000104   0x0000001a   Code   RO         3849    !!handler_copy      c_p.l(__scatter_copy.o)
    0x0800011e   0x0800011e   0x00000002   PAD
    0x08000120   0x08000120   0x0000001c   Code   RO         3851    !!handler_zi        c_p.l(__scatter_zi.o)
    0x0800013c   0x0800013c   0x00000002   Code   RO         3768    .ARM.Collect$$libinit$$00000000  c_p.l(libinit.o)
    0x0800013e   0x0800013e   0x00000000   Code   RO         3596    .ARM.Collect$$libinit$$00000002  c_p.l(libinit2.o)
    0x0800013e   0x0800013e   0x00000000   Code   RO         3598    .ARM.Collect$$libinit$$00000004  c_p.l(libinit2.o)
    0x0800013e   0x0800013e   0x00000000   Code   RO         3601    .ARM.Collect$$libinit$$0000000A  c_p.l(libinit2.o)
    0x0800013e   0x0800013e   0x00000000   Code   RO         3603    .ARM.Collect$$libinit$$0000000C  c_p.l(libinit2.o)
    0x0800013e   0x0800013e   0x00000000   Code   RO         3605    .ARM.Collect$$libinit$$0000000E  c_p.l(libinit2.o)
    0x0800013e   0x0800013e   0x00000000   Code   RO         3608    .ARM.Collect$$libinit$$00000011  c_p.l(libinit2.o)
    0x0800013e   0x0800013e   0x00000000   Code   RO         3610    .ARM.Collect$$libinit$$00000013  c_p.l(libinit2.o)
    0x0800013e   0x0800013e   0x00000000   Code   RO         3612    .ARM.Collect$$libinit$$00000015  c_p.l(libinit2.o)
    0x0800013e   0x0800013e   0x00000000   Code   RO         3614    .ARM.Collect$$libinit$$00000017  c_p.l(libinit2.o)
    0x0800013e   0x0800013e   0x00000000   Code   RO         3616    .ARM.Collect$$libinit$$00000019  c_p.l(libinit2.o)
    0x0800013e   0x0800013e   0x00000000   Code   RO         3618    .ARM.Collect$$libinit$$0000001B  c_p.l(libinit2.o)
    0x0800013e   0x0800013e   0x00000000   Code   RO         3620    .ARM.Collect$$libinit$$0000001D  c_p.l(libinit2.o)
    0x0800013e   0x0800013e   0x00000000   Code   RO         3622    .ARM.Collect$$libinit$$0000001F  c_p.l(libinit2.o)
    0x0800013e   0x0800013e   0x00000000   Code   RO         3624    .ARM.Collect$$libinit$$00000021  c_p.l(libinit2.o)
    0x0800013e   0x0800013e   0x00000000   Code   RO         3626    .ARM.Collect$$libinit$$00000023  c_p.l(libinit2.o)
    0x0800013e   0x0800013e   0x00000000   Code   RO         3628    .ARM.Collect$$libinit$$00000025  c_p.l(libinit2.o)
    0x0800013e   0x0800013e   0x00000000   Code   RO         3632    .ARM.Collect$$libinit$$0000002C  c_p.l(libinit2.o)
    0x0800013e   0x0800013e   0x00000000   Code   RO         3634    .ARM.Collect$$libinit$$0000002E  c_p.l(libinit2.o)
    0x0800013e   0x0800013e   0x00000000   Code   RO         3636    .ARM.Collect$$libinit$$00000030  c_p.l(libinit2.o)
    0x0800013e   0x0800013e   0x00000000   Code   RO         3638    .ARM.Collect$$libinit$$00000032  c_p.l(libinit2.o)
    0x0800013e   0x0800013e   0x00000002   Code   RO         3639    .ARM.Collect$$libinit$$00000033  c_p.l(libinit2.o)
    0x08000140   0x08000140   0x00000002   Code   RO         3814    .ARM.Collect$$libshutdown$$00000000  c_p.l(libshutdown.o)
    0x08000142   0x08000142   0x00000000   Code   RO         3830    .ARM.Collect$$libshutdown$$00000002  c_p.l(libshutdown2.o)
    0x08000142   0x08000142   0x00000000   Code   RO         3832    .ARM.Collect$$libshutdown$$00000004  c_p.l(libshutdown2.o)
    0x08000142   0x08000142   0x00000000   Code   RO         3835    .ARM.Collect$$libshutdown$$00000007  c_p.l(libshutdown2.o)
    0x08000142   0x08000142   0x00000000   Code   RO         3838    .ARM.Collect$$libshutdown$$0000000A  c_p.l(libshutdown2.o)
    0x08000142   0x08000142   0x00000000   Code   RO         3840    .ARM.Collect$$libshutdown$$0000000C  c_p.l(libshutdown2.o)
    0x08000142   0x08000142   0x00000000   Code   RO         3843    .ARM.Collect$$libshutdown$$0000000F  c_p.l(libshutdown2.o)
    0x08000142   0x08000142   0x00000002   Code   RO         3844    .ARM.Collect$$libshutdown$$00000010  c_p.l(libshutdown2.o)
    0x08000144   0x08000144   0x00000000   Code   RO         3586    .ARM.Collect$$rtentry$$00000000  c_p.l(__rtentry.o)
    0x08000144   0x08000144   0x00000000   Code   RO         3708    .ARM.Collect$$rtentry$$00000002  c_p.l(__rtentry2.o)
    0x08000144   0x08000144   0x00000006   Code   RO         3720    .ARM.Collect$$rtentry$$00000004  c_p.l(__rtentry4.o)
    0x0800014a   0x0800014a   0x00000000   Code   RO         3710    .ARM.Collect$$rtentry$$00000009  c_p.l(__rtentry2.o)
    0x0800014a   0x0800014a   0x00000004   Code   RO         3711    .ARM.Collect$$rtentry$$0000000A  c_p.l(__rtentry2.o)
    0x0800014e   0x0800014e   0x00000000   Code   RO         3713    .ARM.Collect$$rtentry$$0000000C  c_p.l(__rtentry2.o)
    0x0800014e   0x0800014e   0x00000008   Code   RO         3714    .ARM.Collect$$rtentry$$0000000D  c_p.l(__rtentry2.o)
    0x08000156   0x08000156   0x00000002   Code   RO         3776    .ARM.Collect$$rtexit$$00000000  c_p.l(rtexit.o)
    0x08000158   0x08000158   0x00000000   Code   RO         3796    .ARM.Collect$$rtexit$$00000002  c_p.l(rtexit2.o)
    0x08000158   0x08000158   0x00000004   Code   RO         3797    .ARM.Collect$$rtexit$$00000003  c_p.l(rtexit2.o)
    0x0800015c   0x0800015c   0x00000006   Code   RO         3798    .ARM.Collect$$rtexit$$00000004  c_p.l(rtexit2.o)
    0x08000162   0x08000162   0x00000002   PAD
    0x08000164   0x08000164   0x00000038   Code   RO         3494    .emb_text           c_p.l(rt_memcpy.o)
    0x0800019c   0x0800019c   0x00000074   Code   RO         1466    .text               startup_stm32f072.o
    0x08000210   0x08000210   0x00000030   Code   RO         3485    .text               c_p.l(llmul.o)
    0x08000240   0x08000240   0x00000070   Code   RO         3487    .text               c_p.l(llsdiv.o)
    0x080002b0   0x080002b0   0x00000082   Code   RO         3495    .text               c_p.l(rt_memcpy.o)
    0x08000332   0x08000332   0x0000015a   Code   RO         3498    .text               c_p.l(aeabi_sdiv.o)
    0x0800048c   0x0800048c   0x00000006   Code   RO         3502    .text               c_p.l(heapauxi.o)
    0x08000492   0x08000492   0x00000002   PAD
    0x08000494   0x08000494   0x0000007c   Code   RO         3506    .text               fz_ps.l(d2f.o)
    0x08000510   0x08000510   0x00000358   Code   RO         3508    .text               fz_ps.l(daddsub.o)
    0x08000868   0x08000868   0x00000448   Code   RO         3510    .text               fz_ps.l(ddiv.o)
    0x08000cb0   0x08000cb0   0x00000058   Code   RO         3513    .text               fz_ps.l(dflti.o)
    0x08000d08   0x08000d08   0x00000248   Code   RO         3515    .text               fz_ps.l(dmul.o)
    0x08000f50   0x08000f50   0x00000054   Code   RO         3517    .text               fz_ps.l(f2d.o)
    0x08000fa4   0x08000fa4   0x00000160   Code   RO         3525    .text               fz_ps.l(fdiv.o)
    0x08001104   0x08001104   0x0000004c   Code   RO         3528    .text               fz_ps.l(ffixi.o)
    0x08001150   0x08001150   0x00000030   Code   RO         3530    .text               fz_ps.l(ffixui.o)
    0x08001180   0x08001180   0x0000005e   Code   RO         3532    .text               fz_ps.l(fflti.o)
    0x080011de   0x080011de   0x00000002   PAD
    0x080011e0   0x080011e0   0x00000044   Code   RO         3540    .text               fz_ps.l(fscalbn.o)
    0x08001224   0x08001224   0x00000102   Code   RO         3591    .text               c_p.l(lludiv.o)
    0x08001326   0x08001326   0x00000016   Code   RO         3593    .text               c_p.l(_rserrno.o)
    0x0800133c   0x0800133c   0x00000060   Code   RO         3642    .text               fz_ps.l(dscalbn.o)
    0x0800139c   0x0800139c   0x00000064   Code   RO         3644    .text               fz_ps.l(fcmpin.o)
    0x08001400   0x08001400   0x00000080   Code   RO         3646    .text               fz_ps.l(frnd.o)
    0x08001480   0x08001480   0x00000008   Code   RO         3731    .text               c_p.l(rt_errno_addr_intlibspace.o)
    0x08001488   0x08001488   0x0000002e   Code   RO         3735    .text               fz_ps.l(cmpret.o)
    0x080014b6   0x080014b6   0x00000002   PAD
    0x080014b8   0x080014b8   0x00000090   Code   RO         3737    .text               fz_ps.l(dcmpin.o)
    0x08001548   0x08001548   0x00000100   Code   RO         3741    .text               fz_ps.l(dsqrt.o)
    0x08001648   0x08001648   0x00000010   Code   RO         3743    .text               fz_ps.l(fnan2.o)
    0x08001658   0x08001658   0x00000008   Code   RO         3747    .text               c_p.l(libspace.o)
    0x08001660   0x08001660   0x0000003e   Code   RO         3750    .text               c_p.l(sys_stackheap_outer.o)
    0x0800169e   0x0800169e   0x00000010   Code   RO         3753    .text               c_p.l(exit.o)
    0x080016ae   0x080016ae   0x00000002   PAD
    0x080016b0   0x080016b0   0x00000014   Code   RO         3769    .text               fz_ps.l(dnan2.o)
    0x080016c4   0x080016c4   0x0000005e   Code   RO         3771    .text               fz_ps.l(retnan.o)
    0x08001722   0x08001722   0x00000002   PAD
    0x08001724   0x08001724   0x0000000c   Code   RO         3790    .text               c_p.l(sys_exit.o)
    0x08001730   0x08001730   0x00000002   Code   RO         3792    .text               c_p.l(use_no_semi.o)
    0x08001732   0x08001732   0x00000000   Code   RO         3794    .text               c_p.l(indicate_semi.o)
    0x08001732   0x08001732   0x0000000a   Code   RO         1514    i.ADC_ChannelConfig  stm32f0xx_adc.o
    0x0800173c   0x0800173c   0x00000012   Code   RO         1518    i.ADC_Cmd           stm32f0xx_adc.o
    0x0800174e   0x0800174e   0x00000002   PAD
    0x08001750   0x08001750   0x00000020   Code   RO         1522    i.ADC_DeInit        stm32f0xx_adc.o
    0x08001770   0x08001770   0x0000002e   Code   RO         1524    i.ADC_GetCalibrationFactor  stm32f0xx_adc.o
    0x0800179e   0x0800179e   0x00000006   Code   RO         1525    i.ADC_GetConversionValue  stm32f0xx_adc.o
    0x080017a4   0x080017a4   0x0000001c   Code   RO         1526    i.ADC_GetFlagStatus  stm32f0xx_adc.o
    0x080017c0   0x080017c0   0x0000002c   Code   RO         1529    i.ADC_Init          stm32f0xx_adc.o
    0x080017ec   0x080017ec   0x0000000a   Code   RO         1532    i.ADC_StartOfConversion  stm32f0xx_adc.o
    0x080017f6   0x080017f6   0x00000010   Code   RO         1534    i.ADC_StructInit    stm32f0xx_adc.o
    0x08001806   0x08001806   0x00000002   PAD
    0x08001808   0x08001808   0x000002e8   Code   RO         1082    i.ANO_DT_Data_Exchange  ano_dt.o
    0x08001af0   0x08001af0   0x00000430   Code   RO         1083    i.ANO_DT_Data_Receive_Anl  ano_dt.o
    0x08001f20   0x08001f20   0x00000098   Code   RO         1084    i.ANO_DT_Data_Receive_Prepare  ano_dt.o
    0x08001fb8   0x08001fb8   0x00000070   Code   RO         1085    i.ANO_DT_Send_ALT   ano_dt.o
    0x08002028   0x08002028   0x00000038   Code   RO         1086    i.ANO_DT_Send_Check  ano_dt.o
    0x08002060   0x08002060   0x00000008   Code   RO         1087    i.ANO_DT_Send_Data  ano_dt.o
    0x08002068   0x08002068   0x00000098   Code   RO         1088    i.ANO_DT_Send_MotoPWM  ano_dt.o
    0x08002100   0x08002100   0x00000120   Code   RO         1089    i.ANO_DT_Send_PID   ano_dt.o
    0x08002220   0x08002220   0x000000b0   Code   RO         1091    i.ANO_DT_Send_RCData  ano_dt.o
    0x080022d0   0x080022d0   0x000000a0   Code   RO         1092    i.ANO_DT_Send_Senser  ano_dt.o
    0x08002370   0x08002370   0x000000a8   Code   RO         1093    i.ANO_DT_Send_Status  ano_dt.o
    0x08002418   0x08002418   0x000001f4   Code   RO         1420    i.Altitude_Combine  altitude.o
    0x0800260c   0x0800260c   0x0000001c   Code   RO         1421    i.Altitude_Control  altitude.o
    0x08002628   0x08002628   0x00000068   Code   RO          853    i.Aver_Filter       filter.o
    0x08002690   0x08002690   0x00000040   Code   RO         1375    i.BATT_GetVoltage   power.o
    0x080026d0   0x080026d0   0x00000080   Code   RO         1376    i.BATT_Init         power.o
    0x08002750   0x08002750   0x0000024c   Code   RO          935    i.Control           control.o
    0x0800299c   0x0800299c   0x00000098   Code   RO         1177    i.Deblocking        remotedata.o
    0x08002a34   0x08002a34   0x00000068   Code   RO         1013    i.DefaultParams     paramsave.o
    0x08002a9c   0x08002a9c   0x0000001c   Code   RO         1014    i.DefaultParams_WriteFlash  paramsave.o
    0x08002ab8   0x08002ab8   0x00000030   Code   RO          272    i.Delay_Init        delay.o
    0x08002ae8   0x08002ae8   0x00000034   Code   RO          273    i.Delay_ms          delay.o
    0x08002b1c   0x08002b1c   0x00000034   Code   RO          274    i.Delay_us          delay.o
    0x08002b50   0x08002b50   0x0000006c   Code   RO          199    i.EXTI0_1_IRQHandler  stm32f0xx_it.o
    0x08002bbc   0x08002bbc   0x0000000c   Code   RO         1704    i.EXTI_ClearITPendingBit  stm32f0xx_exti.o
    0x08002bc8   0x08002bc8   0x00000014   Code   RO         1708    i.EXTI_GetITStatus  stm32f0xx_exti.o
    0x08002bdc   0x08002bdc   0x0000006c   Code   RO         1709    i.EXTI_Init         stm32f0xx_exti.o
    0x08002c48   0x08002c48   0x00000044   Code   RO          374    i.Exit_Init         exit.o
    0x08002c8c   0x08002c8c   0x00000038   Code   RO         1767    i.FLASH_ErasePage   stm32f0xx_flash.o
    0x08002cc4   0x08002cc4   0x00000028   Code   RO         1770    i.FLASH_GetStatus   stm32f0xx_flash.o
    0x08002cec   0x08002cec   0x00000010   Code   RO         1772    i.FLASH_Lock        stm32f0xx_flash.o
    0x08002cfc   0x08002cfc   0x0000004c   Code   RO         1792    i.FLASH_ProgramWord  stm32f0xx_flash.o
    0x08002d48   0x08002d48   0x00000020   Code   RO         1794    i.FLASH_Unlock      stm32f0xx_flash.o
    0x08002d68   0x08002d68   0x00000022   Code   RO         1795    i.FLASH_WaitForLastOperation  stm32f0xx_flash.o
    0x08002d8a   0x08002d8a   0x00000056   Code   RO          857    i.FindPos           filter.o
    0x08002de0   0x08002de0   0x00000070   Code   RO         1965    i.GPIO_Init         stm32f0xx_gpio.o
    0x08002e50   0x08002e50   0x00000020   Code   RO         1966    i.GPIO_PinAFConfig  stm32f0xx_gpio.o
    0x08002e70   0x08002e70   0x0000000e   Code   RO         1969    i.GPIO_ReadInputDataBit  stm32f0xx_gpio.o
    0x08002e7e   0x08002e7e   0x00000004   Code   RO         1972    i.GPIO_ResetBits    stm32f0xx_gpio.o
    0x08002e82   0x08002e82   0x00000004   Code   RO         1973    i.GPIO_SetBits      stm32f0xx_gpio.o
    0x08002e86   0x08002e86   0x00000002   PAD
    0x08002e88   0x08002e88   0x0000001c   Code   RO         1377    i.Get_BatteryAdc    power.o
    0x08002ea4   0x08002ea4   0x00000002   Code   RO          200    i.HardFault_Handler  stm32f0xx_it.o
    0x08002ea6   0x08002ea6   0x0000003e   Code   RO          426    i.IIC_ADD_read      iic.o
    0x08002ee4   0x08002ee4   0x0000003c   Code   RO          428    i.IIC_Ack           iic.o
    0x08002f20   0x08002f20   0x00000034   Code   RO          429    i.IIC_GPIO_Init     iic.o
    0x08002f54   0x08002f54   0x0000003c   Code   RO          430    i.IIC_NAck          iic.o
    0x08002f90   0x08002f90   0x00000060   Code   RO          431    i.IIC_ReadByte      iic.o
    0x08002ff0   0x08002ff0   0x0000004c   Code   RO          432    i.IIC_ReadByteFromSlave  iic.o
    0x0800303c   0x0800303c   0x0000005a   Code   RO          433    i.IIC_ReadMultByteFromSlave  iic.o
    0x08003096   0x08003096   0x00000002   PAD
    0x08003098   0x08003098   0x0000005c   Code   RO          434    i.IIC_SendByte      iic.o
    0x080030f4   0x080030f4   0x0000003c   Code   RO          435    i.IIC_Start         iic.o
    0x08003130   0x08003130   0x0000003c   Code   RO          436    i.IIC_Stop          iic.o
    0x0800316c   0x0800316c   0x00000058   Code   RO          437    i.IIC_WaitAck       iic.o
    0x080031c4   0x080031c4   0x00000042   Code   RO          438    i.IIC_WriteByteToSlave  iic.o
    0x08003206   0x08003206   0x00000002   PAD
    0x08003208   0x08003208   0x00000470   Code   RO          803    i.IMUupdate         imu.o
    0x08003678   0x08003678   0x00000038   Code   RO          309    i.LED_Init          led.o
    0x080036b0   0x080036b0   0x0000002c   Code   RO          310    i.LED_Run           led.o
    0x080036dc   0x080036dc   0x00000068   Code   RO         1378    i.LowVoltage_Alarm  power.o
    0x08003744   0x08003744   0x000000cc   Code   RO          535    i.MOTOR_Init        motor.o
    0x08003810   0x08003810   0x00000056   Code   RO          578    i.MPU6050_Init      mpu6050.o
    0x08003866   0x08003866   0x00000002   PAD
    0x08003868   0x08003868   0x00000088   Code   RO          579    i.MPU6050_OffSet    mpu6050.o
    0x080038f0   0x080038f0   0x000000e0   Code   RO          580    i.MPU6050_Offset    mpu6050.o
    0x080039d0   0x080039d0   0x00000014   Code   RO          581    i.MPU6050_Read      mpu6050.o
    0x080039e4   0x080039e4   0x00000016   Code   RO          583    i.MPU6050_ReadMultBytes  mpu6050.o
    0x080039fa   0x080039fa   0x00000014   Code   RO          585    i.MPU6050_WriteByte  mpu6050.o
    0x08003a0e   0x08003a0e   0x00000002   PAD
    0x08003a10   0x08003a10   0x0000004c   Code   RO          536    i.Moto_Pwm          motor.o
    0x08003a5c   0x08003a5c   0x00000022   Code   RO          201    i.NMI_Handler       stm32f0xx_it.o
    0x08003a7e   0x08003a7e   0x00000002   PAD
    0x08003a80   0x08003a80   0x00000050   Code   RO         3453    i.NVIC_Init         stm32f0xx_misc.o
    0x08003ad0   0x08003ad0   0x0000003a   Code   RO          696    i.NvicConfig        nvic.o
    0x08003b0a   0x08003b0a   0x00000002   PAD
    0x08003b0c   0x08003b0c   0x000000d4   Code   RO          984    i.PID_Postion_Cal   pid.o
    0x08003be0   0x08003be0   0x00000084   Code   RO         1016    i.PID_ReadFlash     paramsave.o
    0x08003c64   0x08003c64   0x0000001c   Code   RO         1017    i.PID_WriteFlash    paramsave.o
    0x08003c80   0x08003c80   0x000001b4   Code   RO         1019    i.ParamsToTable     paramsave.o
    0x08003e34   0x08003e34   0x00000002   Code   RO          202    i.PendSV_Handler    stm32f0xx_it.o
    0x08003e36   0x08003e36   0x00000002   PAD
    0x08003e38   0x08003e38   0x00000094   Code   RO          985    i.PidParameter_init  pid.o
    0x08003ecc   0x08003ecc   0x0000013c   Code   RO          804    i.Prepare_Data      imu.o
    0x08004008   0x08004008   0x0000002a   Code   RO          859    i.QuiteSort         filter.o
    0x08004032   0x08004032   0x00000002   PAD
    0x08004034   0x08004034   0x00000018   Code   RO         2057    i.RCC_AHBPeriphClockCmd  stm32f0xx_rcc.o
    0x0800404c   0x0800404c   0x00000018   Code   RO         2059    i.RCC_APB1PeriphClockCmd  stm32f0xx_rcc.o
    0x08004064   0x08004064   0x00000018   Code   RO         2060    i.RCC_APB1PeriphResetCmd  stm32f0xx_rcc.o
    0x0800407c   0x0800407c   0x00000018   Code   RO         2061    i.RCC_APB2PeriphClockCmd  stm32f0xx_rcc.o
    0x08004094   0x08004094   0x00000018   Code   RO         2062    i.RCC_APB2PeriphResetCmd  stm32f0xx_rcc.o
    0x080040ac   0x080040ac   0x0000000c   Code   RO         2068    i.RCC_ClearITPendingBit  stm32f0xx_rcc.o
    0x080040b8   0x080040b8   0x00000178   Code   RO         2071    i.RCC_GetClocksFreq  stm32f0xx_rcc.o
    0x08004230   0x08004230   0x00000014   Code   RO         2073    i.RCC_GetITStatus   stm32f0xx_rcc.o
    0x08004244   0x08004244   0x00000010   Code   RO         2076    i.RCC_HSEConfig     stm32f0xx_rcc.o
    0x08004254   0x08004254   0x00000018   Code   RO         2082    i.RCC_ITConfig      stm32f0xx_rcc.o
    0x0800426c   0x0800426c   0x00000098   Code   RO         1178    i.Remote_Data_ReceiveAnalysis  remotedata.o
    0x08004304   0x08004304   0x00000028   Code   RO         1273    i.SI24R1_Check      si24r1.o
    0x0800432c   0x0800432c   0x00000060   Code   RO         1274    i.SI24R1_Config     si24r1.o
    0x0800438c   0x0800438c   0x0000006c   Code   RO         1276    i.SI24R1_Init       si24r1.o
    0x080043f8   0x080043f8   0x0000003a   Code   RO         1277    i.SI24R1_Read_Buf   si24r1.o
    0x08004432   0x08004432   0x00000016   Code   RO         1278    i.SI24R1_RxPacket   si24r1.o
    0x08004448   0x08004448   0x00000018   Code   RO         1179    i.SI24R1_SingalCheck  remotedata.o
    0x08004460   0x08004460   0x00000054   Code   RO         1280    i.SI24R1_TxPacket   si24r1.o
    0x080044b4   0x080044b4   0x0000003a   Code   RO         1281    i.SI24R1_Write_Buf  si24r1.o
    0x080044ee   0x080044ee   0x0000002a   Code   RO         1282    i.SI24R1_read_reg   si24r1.o
    0x08004518   0x08004518   0x00000058   Code   RO         1283    i.SI24R1_testConnection  si24r1.o
    0x08004570   0x08004570   0x0000002c   Code   RO         1284    i.SI24R1_write_reg  si24r1.o
    0x0800459c   0x0800459c   0x0000003c   Code   RO         1285    i.SI24R1set_Mode    si24r1.o
    0x080045d8   0x080045d8   0x00000050   Code   RO          716    i.SPI1_WriteReadByte  spi.o
    0x08004628   0x08004628   0x00000012   Code   RO         2324    i.SPI_Cmd           stm32f0xx_spi.o
    0x0800463a   0x0800463a   0x00000002   PAD
    0x0800463c   0x0800463c   0x000000b8   Code   RO          717    i.SPI_GPIO_Init     spi.o
    0x080046f4   0x080046f4   0x00000040   Code   RO         2332    i.SPI_I2S_DeInit    stm32f0xx_spi.o
    0x08004734   0x08004734   0x0000000e   Code   RO         2333    i.SPI_I2S_GetFlagStatus  stm32f0xx_spi.o
    0x08004742   0x08004742   0x00000002   PAD
    0x08004744   0x08004744   0x00000054   Code   RO         2338    i.SPI_Init          stm32f0xx_spi.o
    0x08004798   0x08004798   0x00000004   Code   RO         2342    i.SPI_ReceiveData8  stm32f0xx_spi.o
    0x0800479c   0x0800479c   0x00000014   Code   RO         2343    i.SPI_RxFIFOThresholdConfig  stm32f0xx_spi.o
    0x080047b0   0x080047b0   0x00000004   Code   RO         2345    i.SPI_SendData8     stm32f0xx_spi.o
    0x080047b4   0x080047b4   0x00000014   Code   RO          394    i.STMFLASH_Read     flash.o
    0x080047c8   0x080047c8   0x00000070   Code   RO          396    i.STMFLASH_Write    flash.o
    0x08004838   0x08004838   0x00000002   Code   RO          203    i.SVC_Handler       stm32f0xx_it.o
    0x0800483a   0x0800483a   0x00000002   PAD
    0x0800483c   0x0800483c   0x00000028   Code   RO         2522    i.SYSCFG_EXTILineConfig  stm32f0xx_syscfg.o
    0x08004864   0x08004864   0x000000dc   Code   RO         1180    i.SendToRemote      remotedata.o
    0x08004940   0x08004940   0x00000098   Code   RO         1472    i.SetSysClock       system_stm32f0xx.o
    0x080049d8   0x080049d8   0x000000f8   Code   RO          862    i.SortAver_FilterXYZ  filter.o
    0x08004ad0   0x08004ad0   0x00000018   Code   RO         3455    i.SysTick_CLKSourceConfig  stm32f0xx_misc.o
    0x08004ae8   0x08004ae8   0x00000010   Code   RO          204    i.SysTick_Handler   stm32f0xx_it.o
    0x08004af8   0x08004af8   0x00000060   Code   RO         1474    i.SystemInit        system_stm32f0xx.o
    0x08004b58   0x08004b58   0x00000050   Code   RO          754    i.System_Init       system.o
    0x08004ba8   0x08004ba8   0x000000a0   Code   RO          205    i.TIM2_IRQHandler   stm32f0xx_it.o
    0x08004c48   0x08004c48   0x00000006   Code   RO         2601    i.TIM_ClearITPendingBit  stm32f0xx_tim.o
    0x08004c4e   0x08004c4e   0x00000014   Code   RO         2606    i.TIM_Cmd           stm32f0xx_tim.o
    0x08004c62   0x08004c62   0x00000018   Code   RO         2608    i.TIM_CtrlPWMOutputs  stm32f0xx_tim.o
    0x08004c7a   0x08004c7a   0x00000018   Code   RO         2627    i.TIM_GetITStatus   stm32f0xx_tim.o
    0x08004c92   0x08004c92   0x00000010   Code   RO         2631    i.TIM_ITConfig      stm32f0xx_tim.o
    0x08004ca2   0x08004ca2   0x00000002   PAD
    0x08004ca4   0x08004ca4   0x0000003c   Code   RO          783    i.TIM_Init          tim.o
    0x08004ce0   0x08004ce0   0x0000007c   Code   RO         2635    i.TIM_OC1Init       stm32f0xx_tim.o
    0x08004d5c   0x08004d5c   0x00000090   Code   RO         2640    i.TIM_OC2Init       stm32f0xx_tim.o
    0x08004dec   0x08004dec   0x00000088   Code   RO         2645    i.TIM_OC3Init       stm32f0xx_tim.o
    0x08004e74   0x08004e74   0x00000064   Code   RO         2650    i.TIM_OC4Init       stm32f0xx_tim.o
    0x08004ed8   0x08004ed8   0x00000074   Code   RO         2679    i.TIM_TimeBaseInit  stm32f0xx_tim.o
    0x08004f4c   0x08004f4c   0x000001b4   Code   RO         1020    i.TableToParams     paramsave.o
    0x08005100   0x08005100   0x000000bc   Code   RO          755    i.Task_Schedule     system.o
    0x080051bc   0x080051bc   0x00000080   Code   RO          206    i.USART1_IRQHandler  stm32f0xx_it.o
    0x0800523c   0x0800523c   0x00000004   Code   RO         3148    i.USART_ClearFlag   stm32f0xx_usart.o
    0x08005240   0x08005240   0x0000000a   Code   RO         3149    i.USART_ClearITPendingBit  stm32f0xx_usart.o
    0x0800524a   0x0800524a   0x00000014   Code   RO         3152    i.USART_Cmd         stm32f0xx_usart.o
    0x0800525e   0x0800525e   0x0000000e   Code   RO         3160    i.USART_GetFlagStatus  stm32f0xx_usart.o
    0x0800526c   0x0800526c   0x00000038   Code   RO         3161    i.USART_GetITStatus  stm32f0xx_usart.o
    0x080052a4   0x080052a4   0x0000002a   Code   RO         3163    i.USART_ITConfig    stm32f0xx_usart.o
    0x080052ce   0x080052ce   0x00000002   PAD
    0x080052d0   0x080052d0   0x000000a8   Code   RO         3164    i.USART_Init        stm32f0xx_usart.o
    0x08005378   0x08005378   0x00000008   Code   RO         3181    i.USART_SendData    stm32f0xx_usart.o
    0x08005380   0x08005380   0x00000084   Code   RO          342    i.USART_init        usart.o
    0x08005404   0x08005404   0x00000060   Code   RO          937    i.Yaw_Carefree      control.o
    0x08005464   0x08005464   0x00000032   Code   RO         3697    i.__ARM_common_ll_muluu  m_ps.l(rredf.o)
    0x08005496   0x08005496   0x00000002   PAD
    0x08005498   0x08005498   0x0000002c   Code   RO         3673    i.__ARM_fpclassify  m_ps.l(fpclassify.o)
    0x080054c4   0x080054c4   0x00000022   Code   RO         3675    i.__ARM_fpclassifyf  m_ps.l(fpclassifyf.o)
    0x080054e6   0x080054e6   0x000000ac   Code   RO         3691    i.__kernel_poly     m_ps.l(poly.o)
    0x08005592   0x08005592   0x00000002   PAD
    0x08005594   0x08005594   0x00000014   Code   RO         3659    i.__mathlib_dbl_divzero  m_ps.l(dunder.o)
    0x080055a8   0x080055a8   0x0000000a   Code   RO         3660    i.__mathlib_dbl_infnan  m_ps.l(dunder.o)
    0x080055b2   0x080055b2   0x00000008   Code   RO         3661    i.__mathlib_dbl_infnan2  m_ps.l(dunder.o)
    0x080055ba   0x080055ba   0x00000010   Code   RO         3662    i.__mathlib_dbl_invalid  m_ps.l(dunder.o)
    0x080055ca   0x080055ca   0x00000002   PAD
    0x080055cc   0x080055cc   0x00000014   Code   RO         3663    i.__mathlib_dbl_overflow  m_ps.l(dunder.o)
    0x080055e0   0x080055e0   0x00000014   Code   RO         3665    i.__mathlib_dbl_underflow  m_ps.l(dunder.o)
    0x080055f4   0x080055f4   0x0000000a   Code   RO         3678    i.__mathlib_flt_infnan  m_ps.l(funder.o)
    0x080055fe   0x080055fe   0x0000000c   Code   RO         3680    i.__mathlib_flt_invalid  m_ps.l(funder.o)
    0x0800560a   0x0800560a   0x0000000e   Code   RO         3683    i.__mathlib_flt_underflow  m_ps.l(funder.o)
    0x08005618   0x08005618   0x00000180   Code   RO         3694    i.__mathlib_rredf2  m_ps.l(rredf.o)
    0x08005798   0x08005798   0x00000274   Code   RO         3543    i.asin              m_ps.l(asin.o)
    0x08005a0c   0x08005a0c   0x0000021c   Code   RO         3650    i.atan              m_ps.l(atan.o)
    0x08005c28   0x08005c28   0x00000178   Code   RO         3553    i.atan2             m_ps.l(atan2.o)
    0x08005da0   0x08005da0   0x00000154   Code   RO         1229    i.bmp280CompensateP  bmp280.o
    0x08005ef4   0x08005ef4   0x000000dc   Code   RO         1230    i.bmp280GetData     bmp280.o
    0x08005fd0   0x08005fd0   0x00000078   Code   RO         1231    i.bmp280Init        bmp280.o
    0x08006048   0x08006048   0x0000005c   Code   RO         1232    i.bmp280PressureToAltitude  bmp280.o
    0x080060a4   0x080060a4   0x00000178   Code   RO         3561    i.cosf              m_ps.l(cosf.o)
    0x0800621c   0x0800621c   0x00000068   Code   RO         1422    i.inertial_filter_correct  altitude.o
    0x08006284   0x08006284   0x00000034   Code   RO          805    i.invSqrt           imu.o
    0x080062b8   0x080062b8   0x0000000a   Code   RO            3    i.main              main.o
    0x080062c2   0x080062c2   0x00000002   PAD
    0x080062c4   0x080062c4   0x000009fc   Code   RO         3569    i.pow               m_ps.l(pow.o)
    0x08006cc0   0x08006cc0   0x00000184   Code   RO         3579    i.sinf              m_ps.l(sinf.o)
    0x08006e44   0x08006e44   0x00000048   Code   RO         3700    i.sqrt              m_ps.l(sqrt.o)
    0x08006e8c   0x08006e8c   0x00000030   Code   RO          344    i.usart_send        usart.o
    0x08006ebc   0x08006ebc   0x00000068   Code   RO         3640    x$fpl$drleqf        fz_ps.l(drlef.o)
    0x08006f24   0x08006f24   0x0000008c   Code   RO         3519    x$fpl$fadd          fz_ps.l(faddsub.o)
    0x08006fb0   0x08006fb0   0x00000054   Code   RO         3534    x$fpl$fleqf         fz_ps.l(flef.o)
    0x08007004   0x08007004   0x000000b0   Code   RO         3536    x$fpl$fmul          fz_ps.l(fmul.o)
    0x080070b4   0x080070b4   0x00000058   Code   RO         3538    x$fpl$frleqf        fz_ps.l(frlef.o)
    0x0800710c   0x0800710c   0x00000018   Code   RO         3520    x$fpl$frsb          fz_ps.l(faddsub.o)
    0x08007124   0x08007124   0x000000d0   Code   RO         3521    x$fpl$fsub          fz_ps.l(faddsub.o)
    0x080071f4   0x080071f4   0x00000000   Code   RO         3648    x$fpl$usenofp       fz_ps.l(usenofp.o)
    0x080071f4   0x080071f4   0x00000024   Data   RO          810    .constdata          imu.o
    0x08007218   0x08007218   0x00000080   Data   RO         3511    .constdata          fz_ps.l(ddiv.o)
    0x08007298   0x08007298   0x00000040   Data   RO         3526    .constdata          fz_ps.l(fdiv.o)
    0x080072d8   0x080072d8   0x00000050   Data   RO         3544    .constdata          m_ps.l(asin.o)
    0x08007328   0x08007328   0x00000088   Data   RO         3570    .constdata          m_ps.l(pow.o)
    0x080073b0   0x080073b0   0x00000098   Data   RO         3651    .constdata          m_ps.l(atan.o)
    0x08007448   0x08007448   0x00000008   Data   RO         3693    .constdata          m_ps.l(qnan.o)
    0x08007450   0x08007450   0x00000020   Data   RO         3695    .constdata          m_ps.l(rredf.o)
    0x08007470   0x08007470   0x00000020   Data   RO         3845    Region$$Table       anon$$obj.o


    Execution Region RW_IRAM1 (Exec base: 0x20000000, Load base: 0x08007490, Size: 0x00001048, Max: 0x00004000, ABSOLUTE)

    Exec Addr    Load Addr    Size         Type   Attr      Idx    E Section Name        Object

    0x20000000   0x08007490   0x00000016   Data   RW          207    .data               stm32f0xx_it.o
    0x20000016   0x080074a6   0x00000004   Data   RW          275    .data               delay.o
    0x2000001a   0x080074aa   0x00000002   PAD
    0x2000001c   0x080074ac   0x00000004   Data   RW          276    .data               delay.o
    0x20000020   0x080074b0   0x00000001   Data   RW          311    .data               led.o
    0x20000021   0x080074b1   0x00000001   Data   RW          312    .data               led.o
    0x20000022   0x080074b2   0x00000002   PAD
    0x20000024   0x080074b4   0x00000028   Data   RW          590    .data               mpu6050.o
    0x2000004c   0x080074dc   0x00000020   Data   RW          811    .data               imu.o
    0x2000006c   0x080074fc   0x0000000e   Data   RW          865    .data               filter.o
    0x2000007a   0x0800750a   0x00000002   PAD
    0x2000007c   0x0800750c   0x00000018   Data   RW          941    .data               control.o
    0x20000094   0x08007524   0x00000009   Data   RW         1096    .data               ano_dt.o
    0x2000009d   0x0800752d   0x00000001   PAD
    0x2000009e   0x0800752e   0x00000008   Data   RW         1183    .data               remotedata.o
    0x200000a6   0x08007536   0x00000002   PAD
    0x200000a8   0x08007538   0x00000010   Data   RW         1234    .data               bmp280.o
    0x200000b8   0x08007548   0x00000012   Data   RW         1288    .data               si24r1.o
    0x200000ca   0x0800755a   0x00000002   PAD
    0x200000cc   0x0800755c   0x00000018   Data   RW         1379    .data               power.o
    0x200000e4   0x08007574   0x0000001c   Data   RW         1426    .data               altitude.o
    0x20000100   0x08007590   0x00000014   Data   RW         1475    .data               system_stm32f0xx.o
    0x20000114   0x080075a4   0x00000010   Data   RW         2097    .data               stm32f0xx_rcc.o
    0x20000124        -       0x0000000e   Zero   RW          589    .bss                mpu6050.o
    0x20000132   0x080075b4   0x00000002   PAD
    0x20000134        -       0x0000000c   Zero   RW          806    .bss                imu.o
    0x20000140        -       0x00000054   Zero   RW          807    .bss                imu.o
    0x20000194        -       0x00000500   Zero   RW          864    .bss                filter.o
    0x20000694        -       0x000001a4   Zero   RW          939    .bss                control.o
    0x20000838        -       0x0000003c   Zero   RW          940    .bss                control.o
    0x20000874        -       0x0000003e   Zero   RW         1021    .bss                paramsave.o
    0x200008b2        -       0x0000006e   Zero   RW         1095    .bss                ano_dt.o
    0x20000920        -       0x0000000c   Zero   RW         1182    .bss                remotedata.o
    0x2000092c        -       0x00000030   Zero   RW         1233    .bss                bmp280.o
    0x2000095c        -       0x00000020   Zero   RW         1286    .bss                si24r1.o
    0x2000097c        -       0x00000020   Zero   RW         1287    .bss                si24r1.o
    0x2000099c        -       0x00000048   Zero   RW         1423    .bss                altitude.o
    0x200009e4        -       0x00000060   Zero   RW         3748    .bss                c_p.l(libspace.o)
    0x20000a44   0x080075b4   0x00000004   PAD
    0x20000a48        -       0x00000200   Zero   RW         1464    HEAP                startup_stm32f072.o
    0x20000c48        -       0x00000400   Zero   RW         1463    STACK               startup_stm32f072.o


==============================================================================

Image component sizes


      Code (inc. data)   RO Data    RW Data    ZI Data      Debug   Object Name

       632         58          0         28         72       7932   altitude.o
      3088        244          0          9        110      10605   ano_dt.o
       772         74          0         16         48       8742   bmp280.o
       684         48          0         24        480       7597   control.o
       152         28          0          8          0       2136   delay.o
        68          0          0          0          0        532   exit.o
       480         18          0         14       1280       8148   filter.o
       132          8          0          0          0       1961   flash.o
       862         38          0          0          0       7527   iic.o
      1504         76         36         32         96       8088   imu.o
       100         14          0          2          0       1208   led.o
        10          0          0          0          0     241286   main.o
       280         18          0          0          0       1348   motor.o
       508         22          0         40         14       9234   mpu6050.o
        58          0          0          0          0        497   nvic.o
      1164        186          0          0         62       8685   paramsave.o
       360         60          0          0          0       1710   pid.o
       324         34          0         24          0       7503   power.o
       548         84          0          8         12       7307   remotedata.o
       700         44          0         18         64       7915   si24r1.o
       264         12          0          0          0       1345   spi.o
       116         56        192          0       1536        744   startup_stm32f072.o
       210         10          0          0          0       5923   stm32f0xx_adc.o
       140         16          0          0          0       2296   stm32f0xx_exti.o
       254         34          0          0          0       4313   stm32f0xx_flash.o
       166          0          0          0          0       3639   stm32f0xx_gpio.o
       452         32          0         22          0       4172   stm32f0xx_it.o
       104         14          0          0          0       1622   stm32f0xx_misc.o
       568         82          0         16          0       7309   stm32f0xx_rcc.o
       208         24          0          0          0       4813   stm32f0xx_spi.o
        40          6          0          0          0        676   stm32f0xx_syscfg.o
       710        116          0          0          0       8614   stm32f0xx_tim.o
       322         20          0          0          0       6389   stm32f0xx_usart.o
       268         50          0          0          0       1074   system.o
       248         22          0         20          0       2005   system_stm32f0xx.o
        60          4          0          0          0        487   tim.o
       180         16          0          0          0       1650   usart.o

    ----------------------------------------------------------------------
     16770       1568        260        292       3776     407032   Object Totals
         0          0         32          0          0          0   (incl. Generated)
        34          0          0         11          2          0   (incl. Padding)

    ----------------------------------------------------------------------

      Code (inc. data)   RO Data    RW Data    ZI Data      Debug   Library Member Name

         8          0          0          0          0         68   __main.o
         0          0          0          0          0          0   __rtentry.o
        12          0          0          0          0          0   __rtentry2.o
         6          0          0          0          0          0   __rtentry4.o
        60          8          0          0          0          0   __scatter.o
        26          0          0          0          0          0   __scatter_copy.o
        28          0          0          0          0          0   __scatter_zi.o
        22          0          0          0          0         92   _rserrno.o
       346          0          0          0          0         92   aeabi_sdiv.o
        16          0          0          0          0         68   exit.o
         6          0          0          0          0        136   heapauxi.o
         0          0          0          0          0          0   indicate_semi.o
         2          0          0          0          0          0   libinit.o
         2          0          0          0          0          0   libinit2.o
         2          0          0          0          0          0   libshutdown.o
         2          0          0          0          0          0   libshutdown2.o
         8          4          0          0         96         68   libspace.o
        48          0          0          0          0         72   llmul.o
       112          0          0          0          0         72   llsdiv.o
       258          0          0          0          0         88   lludiv.o
         8          4          0          0          0         68   rt_errno_addr_intlibspace.o
       186          0          0          0          0        144   rt_memcpy.o
         2          0          0          0          0          0   rtexit.o
        10          0          0          0          0          0   rtexit2.o
        12          4          0          0          0         60   sys_exit.o
        62          0          0          0          0         80   sys_stackheap_outer.o
         2          0          0          0          0         68   use_no_semi.o
        46          0          0          0          0         60   cmpret.o
       124          4          0          0          0         72   d2f.o
       856         20          0          0          0        208   daddsub.o
       144          4          0          0          0         76   dcmpin.o
      1096         26        128          0          0        112   ddiv.o
        88          0          0          0          0         92   dflti.o
       584         26          0          0          0         84   dmul.o
        20          6          0          0          0         68   dnan2.o
       104          4          0          0          0        104   drlef.o
        96         12          0          0          0         72   dscalbn.o
       256          8          0          0          0         76   dsqrt.o
        84          4          0          0          0         60   f2d.o
       372          8          0          0          0        240   faddsub.o
       100          4          0          0          0         68   fcmpin.o
       352         10         64          0          0         92   fdiv.o
        76          0          0          0          0         68   ffixi.o
        48          0          0          0          0         60   ffixui.o
        94          0          0          0          0         92   fflti.o
        84          4          0          0          0         76   flef.o
       176          4          0          0          0         80   fmul.o
        16          6          0          0          0         68   fnan2.o
        88          4          0          0          0         76   frlef.o
       128          6          0          0          0         68   frnd.o
        68          4          0          0          0         68   fscalbn.o
        94          0          0          0          0         68   retnan.o
         0          0          0          0          0          0   usenofp.o
       628         54         80          0          0        104   asin.o
       540         68        152          0          0        112   atan.o
       376         42          0          0          0        144   atan2.o
       376         58          0          0          0        104   cosf.o
        94         14          0          0          0        408   dunder.o
        44          4          0          0          0         60   fpclassify.o
        34          0          0          0          0         60   fpclassifyf.o
        36          0          0          0          0        204   funder.o
       172          0          0          0          0         76   poly.o
      2556        196        136          0          0        240   pow.o
         0          0          8          0          0          0   qnan.o
       434         18         32          0          0        168   rredf.o
       388         58          0          0          0        104   sinf.o
        72          6          0          0          0         76   sqrt.o

    ----------------------------------------------------------------------
     12210        702        600          0        100       5244   Library Totals
        20          0          0          0          4          0   (incl. Padding)

    ----------------------------------------------------------------------

      Code (inc. data)   RO Data    RW Data    ZI Data      Debug   Library Name

      1246         20          0          0         96       1176   c_p.l
      5194        164        192          0          0       2208   fz_ps.l
      5750        518        408          0          0       1860   m_ps.l

    ----------------------------------------------------------------------
     12210        702        600          0        100       5244   Library Totals

    ----------------------------------------------------------------------

==============================================================================


      Code (inc. data)   RO Data    RW Data    ZI Data      Debug   

     28980       2270        860        292       3876     402688   Grand Totals
     28980       2270        860        292       3876     402688   ELF Image Totals
     28980       2270        860        292          0          0   ROM Totals

==============================================================================

    Total RO  Size (Code + RO Data)                29840 (  29.14kB)
    Total RW  Size (RW Data + ZI Data)              4168 (   4.07kB)
    Total ROM Size (Code + RO Data + RW Data)      30132 (  29.43kB)

==============================================================================

